
ctarget:     file format elf64-x86-64


Disassembly of section .init:

0000000000400c48 <_init>:
  400c48:	48 83 ec 08          	sub    $0x8,%rsp
  400c4c:	48 8b 05 a5 33 20 00 	mov    0x2033a5(%rip),%rax        # 603ff8 <__gmon_start__>
  400c53:	48 85 c0             	test   %rax,%rax
  400c56:	74 02                	je     400c5a <_init+0x12>
  400c58:	ff d0                	callq  *%rax
  400c5a:	48 83 c4 08          	add    $0x8,%rsp
  400c5e:	c3                   	retq   

Disassembly of section .plt:

0000000000400c60 <.plt>:
  400c60:	ff 35 a2 33 20 00    	pushq  0x2033a2(%rip)        # 604008 <_GLOBAL_OFFSET_TABLE_+0x8>
  400c66:	ff 25 a4 33 20 00    	jmpq   *0x2033a4(%rip)        # 604010 <_GLOBAL_OFFSET_TABLE_+0x10>
  400c6c:	0f 1f 40 00          	nopl   0x0(%rax)

0000000000400c70 <strcasecmp@plt>:
  400c70:	ff 25 a2 33 20 00    	jmpq   *0x2033a2(%rip)        # 604018 <strcasecmp@GLIBC_2.2.5>
  400c76:	68 00 00 00 00       	pushq  $0x0
  400c7b:	e9 e0 ff ff ff       	jmpq   400c60 <.plt>

0000000000400c80 <__errno_location@plt>:
  400c80:	ff 25 9a 33 20 00    	jmpq   *0x20339a(%rip)        # 604020 <__errno_location@GLIBC_2.2.5>
  400c86:	68 01 00 00 00       	pushq  $0x1
  400c8b:	e9 d0 ff ff ff       	jmpq   400c60 <.plt>

0000000000400c90 <srandom@plt>:
  400c90:	ff 25 92 33 20 00    	jmpq   *0x203392(%rip)        # 604028 <srandom@GLIBC_2.2.5>
  400c96:	68 02 00 00 00       	pushq  $0x2
  400c9b:	e9 c0 ff ff ff       	jmpq   400c60 <.plt>

0000000000400ca0 <strncmp@plt>:
  400ca0:	ff 25 8a 33 20 00    	jmpq   *0x20338a(%rip)        # 604030 <strncmp@GLIBC_2.2.5>
  400ca6:	68 03 00 00 00       	pushq  $0x3
  400cab:	e9 b0 ff ff ff       	jmpq   400c60 <.plt>

0000000000400cb0 <strcpy@plt>:
  400cb0:	ff 25 82 33 20 00    	jmpq   *0x203382(%rip)        # 604038 <strcpy@GLIBC_2.2.5>
  400cb6:	68 04 00 00 00       	pushq  $0x4
  400cbb:	e9 a0 ff ff ff       	jmpq   400c60 <.plt>

0000000000400cc0 <puts@plt>:
  400cc0:	ff 25 7a 33 20 00    	jmpq   *0x20337a(%rip)        # 604040 <puts@GLIBC_2.2.5>
  400cc6:	68 05 00 00 00       	pushq  $0x5
  400ccb:	e9 90 ff ff ff       	jmpq   400c60 <.plt>

0000000000400cd0 <write@plt>:
  400cd0:	ff 25 72 33 20 00    	jmpq   *0x203372(%rip)        # 604048 <write@GLIBC_2.2.5>
  400cd6:	68 06 00 00 00       	pushq  $0x6
  400cdb:	e9 80 ff ff ff       	jmpq   400c60 <.plt>

0000000000400ce0 <__stack_chk_fail@plt>:
  400ce0:	ff 25 6a 33 20 00    	jmpq   *0x20336a(%rip)        # 604050 <__stack_chk_fail@GLIBC_2.4>
  400ce6:	68 07 00 00 00       	pushq  $0x7
  400ceb:	e9 70 ff ff ff       	jmpq   400c60 <.plt>

0000000000400cf0 <mmap@plt>:
  400cf0:	ff 25 62 33 20 00    	jmpq   *0x203362(%rip)        # 604058 <mmap@GLIBC_2.2.5>
  400cf6:	68 08 00 00 00       	pushq  $0x8
  400cfb:	e9 60 ff ff ff       	jmpq   400c60 <.plt>

0000000000400d00 <memset@plt>:
  400d00:	ff 25 5a 33 20 00    	jmpq   *0x20335a(%rip)        # 604060 <memset@GLIBC_2.2.5>
  400d06:	68 09 00 00 00       	pushq  $0x9
  400d0b:	e9 50 ff ff ff       	jmpq   400c60 <.plt>

0000000000400d10 <alarm@plt>:
  400d10:	ff 25 52 33 20 00    	jmpq   *0x203352(%rip)        # 604068 <alarm@GLIBC_2.2.5>
  400d16:	68 0a 00 00 00       	pushq  $0xa
  400d1b:	e9 40 ff ff ff       	jmpq   400c60 <.plt>

0000000000400d20 <close@plt>:
  400d20:	ff 25 4a 33 20 00    	jmpq   *0x20334a(%rip)        # 604070 <close@GLIBC_2.2.5>
  400d26:	68 0b 00 00 00       	pushq  $0xb
  400d2b:	e9 30 ff ff ff       	jmpq   400c60 <.plt>

0000000000400d30 <read@plt>:
  400d30:	ff 25 42 33 20 00    	jmpq   *0x203342(%rip)        # 604078 <read@GLIBC_2.2.5>
  400d36:	68 0c 00 00 00       	pushq  $0xc
  400d3b:	e9 20 ff ff ff       	jmpq   400c60 <.plt>

0000000000400d40 <signal@plt>:
  400d40:	ff 25 3a 33 20 00    	jmpq   *0x20333a(%rip)        # 604080 <signal@GLIBC_2.2.5>
  400d46:	68 0d 00 00 00       	pushq  $0xd
  400d4b:	e9 10 ff ff ff       	jmpq   400c60 <.plt>

0000000000400d50 <gethostbyname@plt>:
  400d50:	ff 25 32 33 20 00    	jmpq   *0x203332(%rip)        # 604088 <gethostbyname@GLIBC_2.2.5>
  400d56:	68 0e 00 00 00       	pushq  $0xe
  400d5b:	e9 00 ff ff ff       	jmpq   400c60 <.plt>

0000000000400d60 <__memmove_chk@plt>:
  400d60:	ff 25 2a 33 20 00    	jmpq   *0x20332a(%rip)        # 604090 <__memmove_chk@GLIBC_2.3.4>
  400d66:	68 0f 00 00 00       	pushq  $0xf
  400d6b:	e9 f0 fe ff ff       	jmpq   400c60 <.plt>

0000000000400d70 <strtol@plt>:
  400d70:	ff 25 22 33 20 00    	jmpq   *0x203322(%rip)        # 604098 <strtol@GLIBC_2.2.5>
  400d76:	68 10 00 00 00       	pushq  $0x10
  400d7b:	e9 e0 fe ff ff       	jmpq   400c60 <.plt>

0000000000400d80 <memcpy@plt>:
  400d80:	ff 25 1a 33 20 00    	jmpq   *0x20331a(%rip)        # 6040a0 <memcpy@GLIBC_2.14>
  400d86:	68 11 00 00 00       	pushq  $0x11
  400d8b:	e9 d0 fe ff ff       	jmpq   400c60 <.plt>

0000000000400d90 <time@plt>:
  400d90:	ff 25 12 33 20 00    	jmpq   *0x203312(%rip)        # 6040a8 <time@GLIBC_2.2.5>
  400d96:	68 12 00 00 00       	pushq  $0x12
  400d9b:	e9 c0 fe ff ff       	jmpq   400c60 <.plt>

0000000000400da0 <random@plt>:
  400da0:	ff 25 0a 33 20 00    	jmpq   *0x20330a(%rip)        # 6040b0 <random@GLIBC_2.2.5>
  400da6:	68 13 00 00 00       	pushq  $0x13
  400dab:	e9 b0 fe ff ff       	jmpq   400c60 <.plt>

0000000000400db0 <_IO_getc@plt>:
  400db0:	ff 25 02 33 20 00    	jmpq   *0x203302(%rip)        # 6040b8 <_IO_getc@GLIBC_2.2.5>
  400db6:	68 14 00 00 00       	pushq  $0x14
  400dbb:	e9 a0 fe ff ff       	jmpq   400c60 <.plt>

0000000000400dc0 <__isoc99_sscanf@plt>:
  400dc0:	ff 25 fa 32 20 00    	jmpq   *0x2032fa(%rip)        # 6040c0 <__isoc99_sscanf@GLIBC_2.7>
  400dc6:	68 15 00 00 00       	pushq  $0x15
  400dcb:	e9 90 fe ff ff       	jmpq   400c60 <.plt>

0000000000400dd0 <munmap@plt>:
  400dd0:	ff 25 f2 32 20 00    	jmpq   *0x2032f2(%rip)        # 6040c8 <munmap@GLIBC_2.2.5>
  400dd6:	68 16 00 00 00       	pushq  $0x16
  400ddb:	e9 80 fe ff ff       	jmpq   400c60 <.plt>

0000000000400de0 <__printf_chk@plt>:
  400de0:	ff 25 ea 32 20 00    	jmpq   *0x2032ea(%rip)        # 6040d0 <__printf_chk@GLIBC_2.3.4>
  400de6:	68 17 00 00 00       	pushq  $0x17
  400deb:	e9 70 fe ff ff       	jmpq   400c60 <.plt>

0000000000400df0 <fopen@plt>:
  400df0:	ff 25 e2 32 20 00    	jmpq   *0x2032e2(%rip)        # 6040d8 <fopen@GLIBC_2.2.5>
  400df6:	68 18 00 00 00       	pushq  $0x18
  400dfb:	e9 60 fe ff ff       	jmpq   400c60 <.plt>

0000000000400e00 <getopt@plt>:
  400e00:	ff 25 da 32 20 00    	jmpq   *0x2032da(%rip)        # 6040e0 <getopt@GLIBC_2.2.5>
  400e06:	68 19 00 00 00       	pushq  $0x19
  400e0b:	e9 50 fe ff ff       	jmpq   400c60 <.plt>

0000000000400e10 <strtoul@plt>:
  400e10:	ff 25 d2 32 20 00    	jmpq   *0x2032d2(%rip)        # 6040e8 <strtoul@GLIBC_2.2.5>
  400e16:	68 1a 00 00 00       	pushq  $0x1a
  400e1b:	e9 40 fe ff ff       	jmpq   400c60 <.plt>

0000000000400e20 <gethostname@plt>:
  400e20:	ff 25 ca 32 20 00    	jmpq   *0x2032ca(%rip)        # 6040f0 <gethostname@GLIBC_2.2.5>
  400e26:	68 1b 00 00 00       	pushq  $0x1b
  400e2b:	e9 30 fe ff ff       	jmpq   400c60 <.plt>

0000000000400e30 <exit@plt>:
  400e30:	ff 25 c2 32 20 00    	jmpq   *0x2032c2(%rip)        # 6040f8 <exit@GLIBC_2.2.5>
  400e36:	68 1c 00 00 00       	pushq  $0x1c
  400e3b:	e9 20 fe ff ff       	jmpq   400c60 <.plt>

0000000000400e40 <connect@plt>:
  400e40:	ff 25 ba 32 20 00    	jmpq   *0x2032ba(%rip)        # 604100 <connect@GLIBC_2.2.5>
  400e46:	68 1d 00 00 00       	pushq  $0x1d
  400e4b:	e9 10 fe ff ff       	jmpq   400c60 <.plt>

0000000000400e50 <__fprintf_chk@plt>:
  400e50:	ff 25 b2 32 20 00    	jmpq   *0x2032b2(%rip)        # 604108 <__fprintf_chk@GLIBC_2.3.4>
  400e56:	68 1e 00 00 00       	pushq  $0x1e
  400e5b:	e9 00 fe ff ff       	jmpq   400c60 <.plt>

0000000000400e60 <__sprintf_chk@plt>:
  400e60:	ff 25 aa 32 20 00    	jmpq   *0x2032aa(%rip)        # 604110 <__sprintf_chk@GLIBC_2.3.4>
  400e66:	68 1f 00 00 00       	pushq  $0x1f
  400e6b:	e9 f0 fd ff ff       	jmpq   400c60 <.plt>

0000000000400e70 <socket@plt>:
  400e70:	ff 25 a2 32 20 00    	jmpq   *0x2032a2(%rip)        # 604118 <socket@GLIBC_2.2.5>
  400e76:	68 20 00 00 00       	pushq  $0x20
  400e7b:	e9 e0 fd ff ff       	jmpq   400c60 <.plt>

Disassembly of section .text:

0000000000400e80 <_start>:
  400e80:	31 ed                	xor    %ebp,%ebp
  400e82:	49 89 d1             	mov    %rdx,%r9
  400e85:	5e                   	pop    %rsi
  400e86:	48 89 e2             	mov    %rsp,%rdx
  400e89:	48 83 e4 f0          	and    $0xfffffffffffffff0,%rsp
  400e8d:	50                   	push   %rax
  400e8e:	54                   	push   %rsp
  400e8f:	49 c7 c0 40 2d 40 00 	mov    $0x402d40,%r8
  400e96:	48 c7 c1 d0 2c 40 00 	mov    $0x402cd0,%rcx
  400e9d:	48 c7 c7 8e 11 40 00 	mov    $0x40118e,%rdi
  400ea4:	ff 15 46 31 20 00    	callq  *0x203146(%rip)        # 603ff0 <__libc_start_main@GLIBC_2.2.5>
  400eaa:	f4                   	hlt    
  400eab:	0f 1f 44 00 00       	nopl   0x0(%rax,%rax,1)

0000000000400eb0 <_dl_relocate_static_pie>:
  400eb0:	f3 c3                	repz retq 
  400eb2:	66 2e 0f 1f 84 00 00 	nopw   %cs:0x0(%rax,%rax,1)
  400eb9:	00 00 00 
  400ebc:	0f 1f 40 00          	nopl   0x0(%rax)

0000000000400ec0 <deregister_tm_clones>:
  400ec0:	55                   	push   %rbp
  400ec1:	b8 88 44 60 00       	mov    $0x604488,%eax
  400ec6:	48 3d 88 44 60 00    	cmp    $0x604488,%rax
  400ecc:	48 89 e5             	mov    %rsp,%rbp
  400ecf:	74 17                	je     400ee8 <deregister_tm_clones+0x28>
  400ed1:	b8 00 00 00 00       	mov    $0x0,%eax
  400ed6:	48 85 c0             	test   %rax,%rax
  400ed9:	74 0d                	je     400ee8 <deregister_tm_clones+0x28>
  400edb:	5d                   	pop    %rbp
  400edc:	bf 88 44 60 00       	mov    $0x604488,%edi
  400ee1:	ff e0                	jmpq   *%rax
  400ee3:	0f 1f 44 00 00       	nopl   0x0(%rax,%rax,1)
  400ee8:	5d                   	pop    %rbp
  400ee9:	c3                   	retq   
  400eea:	66 0f 1f 44 00 00    	nopw   0x0(%rax,%rax,1)

0000000000400ef0 <register_tm_clones>:
  400ef0:	be 88 44 60 00       	mov    $0x604488,%esi
  400ef5:	55                   	push   %rbp
  400ef6:	48 81 ee 88 44 60 00 	sub    $0x604488,%rsi
  400efd:	48 89 e5             	mov    %rsp,%rbp
  400f00:	48 c1 fe 03          	sar    $0x3,%rsi
  400f04:	48 89 f0             	mov    %rsi,%rax
  400f07:	48 c1 e8 3f          	shr    $0x3f,%rax
  400f0b:	48 01 c6             	add    %rax,%rsi
  400f0e:	48 d1 fe             	sar    %rsi
  400f11:	74 15                	je     400f28 <register_tm_clones+0x38>
  400f13:	b8 00 00 00 00       	mov    $0x0,%eax
  400f18:	48 85 c0             	test   %rax,%rax
  400f1b:	74 0b                	je     400f28 <register_tm_clones+0x38>
  400f1d:	5d                   	pop    %rbp
  400f1e:	bf 88 44 60 00       	mov    $0x604488,%edi
  400f23:	ff e0                	jmpq   *%rax
  400f25:	0f 1f 00             	nopl   (%rax)
  400f28:	5d                   	pop    %rbp
  400f29:	c3                   	retq   
  400f2a:	66 0f 1f 44 00 00    	nopw   0x0(%rax,%rax,1)

0000000000400f30 <__do_global_dtors_aux>:
  400f30:	80 3d 91 35 20 00 00 	cmpb   $0x0,0x203591(%rip)        # 6044c8 <completed.7698>
  400f37:	75 17                	jne    400f50 <__do_global_dtors_aux+0x20>
  400f39:	55                   	push   %rbp
  400f3a:	48 89 e5             	mov    %rsp,%rbp
  400f3d:	e8 7e ff ff ff       	callq  400ec0 <deregister_tm_clones>
  400f42:	c6 05 7f 35 20 00 01 	movb   $0x1,0x20357f(%rip)        # 6044c8 <completed.7698>
  400f49:	5d                   	pop    %rbp
  400f4a:	c3                   	retq   
  400f4b:	0f 1f 44 00 00       	nopl   0x0(%rax,%rax,1)
  400f50:	f3 c3                	repz retq 
  400f52:	0f 1f 40 00          	nopl   0x0(%rax)
  400f56:	66 2e 0f 1f 84 00 00 	nopw   %cs:0x0(%rax,%rax,1)
  400f5d:	00 00 00 

0000000000400f60 <frame_dummy>:
  400f60:	55                   	push   %rbp
  400f61:	48 89 e5             	mov    %rsp,%rbp
  400f64:	5d                   	pop    %rbp
  400f65:	eb 89                	jmp    400ef0 <register_tm_clones>

0000000000400f67 <usage>:
  400f67:	48 83 ec 08          	sub    $0x8,%rsp
  400f6b:	48 89 fa             	mov    %rdi,%rdx
  400f6e:	83 3d 97 35 20 00 00 	cmpl   $0x0,0x203597(%rip)        # 60450c <is_checker>
  400f75:	74 50                	je     400fc7 <usage+0x60>
  400f77:	48 8d 35 da 1d 00 00 	lea    0x1dda(%rip),%rsi        # 402d58 <_IO_stdin_used+0x8>
  400f7e:	bf 01 00 00 00       	mov    $0x1,%edi
  400f83:	b8 00 00 00 00       	mov    $0x0,%eax
  400f88:	e8 53 fe ff ff       	callq  400de0 <__printf_chk@plt>
  400f8d:	48 8d 3d fc 1d 00 00 	lea    0x1dfc(%rip),%rdi        # 402d90 <_IO_stdin_used+0x40>
  400f94:	e8 27 fd ff ff       	callq  400cc0 <puts@plt>
  400f99:	48 8d 3d 32 1f 00 00 	lea    0x1f32(%rip),%rdi        # 402ed2 <_IO_stdin_used+0x182>
  400fa0:	e8 1b fd ff ff       	callq  400cc0 <puts@plt>
  400fa5:	48 8d 3d 0c 1e 00 00 	lea    0x1e0c(%rip),%rdi        # 402db8 <_IO_stdin_used+0x68>
  400fac:	e8 0f fd ff ff       	callq  400cc0 <puts@plt>
  400fb1:	48 8d 3d 34 1f 00 00 	lea    0x1f34(%rip),%rdi        # 402eec <_IO_stdin_used+0x19c>
  400fb8:	e8 03 fd ff ff       	callq  400cc0 <puts@plt>
  400fbd:	bf 00 00 00 00       	mov    $0x0,%edi
  400fc2:	e8 69 fe ff ff       	callq  400e30 <exit@plt>
  400fc7:	48 8d 35 3a 1f 00 00 	lea    0x1f3a(%rip),%rsi        # 402f08 <_IO_stdin_used+0x1b8>
  400fce:	bf 01 00 00 00       	mov    $0x1,%edi
  400fd3:	b8 00 00 00 00       	mov    $0x0,%eax
  400fd8:	e8 03 fe ff ff       	callq  400de0 <__printf_chk@plt>
  400fdd:	48 8d 3d fc 1d 00 00 	lea    0x1dfc(%rip),%rdi        # 402de0 <_IO_stdin_used+0x90>
  400fe4:	e8 d7 fc ff ff       	callq  400cc0 <puts@plt>
  400fe9:	48 8d 3d 18 1e 00 00 	lea    0x1e18(%rip),%rdi        # 402e08 <_IO_stdin_used+0xb8>
  400ff0:	e8 cb fc ff ff       	callq  400cc0 <puts@plt>
  400ff5:	48 8d 3d 2a 1f 00 00 	lea    0x1f2a(%rip),%rdi        # 402f26 <_IO_stdin_used+0x1d6>
  400ffc:	e8 bf fc ff ff       	callq  400cc0 <puts@plt>
  401001:	eb ba                	jmp    400fbd <usage+0x56>

0000000000401003 <initialize_target>:
  401003:	55                   	push   %rbp
  401004:	53                   	push   %rbx
  401005:	48 81 ec 18 21 00 00 	sub    $0x2118,%rsp
  40100c:	89 f5                	mov    %esi,%ebp
  40100e:	64 48 8b 04 25 28 00 	mov    %fs:0x28,%rax
  401015:	00 00 
  401017:	48 89 84 24 08 21 00 	mov    %rax,0x2108(%rsp)
  40101e:	00 
  40101f:	31 c0                	xor    %eax,%eax
  401021:	89 3d d5 34 20 00    	mov    %edi,0x2034d5(%rip)        # 6044fc <check_level>
  401027:	8b 3d 03 31 20 00    	mov    0x203103(%rip),%edi        # 604130 <target_id>
  40102d:	e8 79 1c 00 00       	callq  402cab <gencookie>
  401032:	89 05 d0 34 20 00    	mov    %eax,0x2034d0(%rip)        # 604508 <cookie>
  401038:	89 c7                	mov    %eax,%edi
  40103a:	e8 6c 1c 00 00       	callq  402cab <gencookie>
  40103f:	89 05 bf 34 20 00    	mov    %eax,0x2034bf(%rip)        # 604504 <authkey>
  401045:	8b 05 e5 30 20 00    	mov    0x2030e5(%rip),%eax        # 604130 <target_id>
  40104b:	8d 78 01             	lea    0x1(%rax),%edi
  40104e:	e8 3d fc ff ff       	callq  400c90 <srandom@plt>
  401053:	e8 48 fd ff ff       	callq  400da0 <random@plt>
  401058:	89 c7                	mov    %eax,%edi
  40105a:	e8 de 02 00 00       	callq  40133d <scramble>
  40105f:	89 c3                	mov    %eax,%ebx
  401061:	85 ed                	test   %ebp,%ebp
  401063:	75 54                	jne    4010b9 <initialize_target+0xb6>
  401065:	b8 00 00 00 00       	mov    $0x0,%eax
  40106a:	01 d8                	add    %ebx,%eax
  40106c:	0f b7 c0             	movzwl %ax,%eax
  40106f:	8d 04 c5 00 01 00 00 	lea    0x100(,%rax,8),%eax
  401076:	89 c0                	mov    %eax,%eax
  401078:	48 89 05 01 34 20 00 	mov    %rax,0x203401(%rip)        # 604480 <buf_offset>
  40107f:	c6 05 a2 40 20 00 63 	movb   $0x63,0x2040a2(%rip)        # 605128 <target_prefix>
  401086:	83 3d 6b 34 20 00 00 	cmpl   $0x0,0x20346b(%rip)        # 6044f8 <notify>
  40108d:	74 09                	je     401098 <initialize_target+0x95>
  40108f:	83 3d 76 34 20 00 00 	cmpl   $0x0,0x203476(%rip)        # 60450c <is_checker>
  401096:	74 39                	je     4010d1 <initialize_target+0xce>
  401098:	48 8b 84 24 08 21 00 	mov    0x2108(%rsp),%rax
  40109f:	00 
  4010a0:	64 48 33 04 25 28 00 	xor    %fs:0x28,%rax
  4010a7:	00 00 
  4010a9:	0f 85 da 00 00 00    	jne    401189 <initialize_target+0x186>
  4010af:	48 81 c4 18 21 00 00 	add    $0x2118,%rsp
  4010b6:	5b                   	pop    %rbx
  4010b7:	5d                   	pop    %rbp
  4010b8:	c3                   	retq   
  4010b9:	bf 00 00 00 00       	mov    $0x0,%edi
  4010be:	e8 cd fc ff ff       	callq  400d90 <time@plt>
  4010c3:	89 c7                	mov    %eax,%edi
  4010c5:	e8 c6 fb ff ff       	callq  400c90 <srandom@plt>
  4010ca:	e8 d1 fc ff ff       	callq  400da0 <random@plt>
  4010cf:	eb 99                	jmp    40106a <initialize_target+0x67>
  4010d1:	48 89 e7             	mov    %rsp,%rdi
  4010d4:	be 00 01 00 00       	mov    $0x100,%esi
  4010d9:	e8 42 fd ff ff       	callq  400e20 <gethostname@plt>
  4010de:	89 c5                	mov    %eax,%ebp
  4010e0:	85 c0                	test   %eax,%eax
  4010e2:	75 26                	jne    40110a <initialize_target+0x107>
  4010e4:	89 c3                	mov    %eax,%ebx
  4010e6:	48 63 c3             	movslq %ebx,%rax
  4010e9:	48 8d 15 70 30 20 00 	lea    0x203070(%rip),%rdx        # 604160 <host_table>
  4010f0:	48 8b 3c c2          	mov    (%rdx,%rax,8),%rdi
  4010f4:	48 85 ff             	test   %rdi,%rdi
  4010f7:	74 2c                	je     401125 <initialize_target+0x122>
  4010f9:	48 89 e6             	mov    %rsp,%rsi
  4010fc:	e8 6f fb ff ff       	callq  400c70 <strcasecmp@plt>
  401101:	85 c0                	test   %eax,%eax
  401103:	74 1b                	je     401120 <initialize_target+0x11d>
  401105:	83 c3 01             	add    $0x1,%ebx
  401108:	eb dc                	jmp    4010e6 <initialize_target+0xe3>
  40110a:	48 8d 3d 27 1d 00 00 	lea    0x1d27(%rip),%rdi        # 402e38 <_IO_stdin_used+0xe8>
  401111:	e8 aa fb ff ff       	callq  400cc0 <puts@plt>
  401116:	bf 08 00 00 00       	mov    $0x8,%edi
  40111b:	e8 10 fd ff ff       	callq  400e30 <exit@plt>
  401120:	bd 01 00 00 00       	mov    $0x1,%ebp
  401125:	85 ed                	test   %ebp,%ebp
  401127:	74 3d                	je     401166 <initialize_target+0x163>
  401129:	48 8d bc 24 00 01 00 	lea    0x100(%rsp),%rdi
  401130:	00 
  401131:	e8 a5 18 00 00       	callq  4029db <init_driver>
  401136:	85 c0                	test   %eax,%eax
  401138:	0f 89 5a ff ff ff    	jns    401098 <initialize_target+0x95>
  40113e:	48 8d 94 24 00 01 00 	lea    0x100(%rsp),%rdx
  401145:	00 
  401146:	48 8d 35 63 1d 00 00 	lea    0x1d63(%rip),%rsi        # 402eb0 <_IO_stdin_used+0x160>
  40114d:	bf 01 00 00 00       	mov    $0x1,%edi
  401152:	b8 00 00 00 00       	mov    $0x0,%eax
  401157:	e8 84 fc ff ff       	callq  400de0 <__printf_chk@plt>
  40115c:	bf 08 00 00 00       	mov    $0x8,%edi
  401161:	e8 ca fc ff ff       	callq  400e30 <exit@plt>
  401166:	48 89 e2             	mov    %rsp,%rdx
  401169:	48 8d 35 00 1d 00 00 	lea    0x1d00(%rip),%rsi        # 402e70 <_IO_stdin_used+0x120>
  401170:	bf 01 00 00 00       	mov    $0x1,%edi
  401175:	b8 00 00 00 00       	mov    $0x0,%eax
  40117a:	e8 61 fc ff ff       	callq  400de0 <__printf_chk@plt>
  40117f:	bf 08 00 00 00       	mov    $0x8,%edi
  401184:	e8 a7 fc ff ff       	callq  400e30 <exit@plt>
  401189:	e8 52 fb ff ff       	callq  400ce0 <__stack_chk_fail@plt>

000000000040118e <main>:
  40118e:	41 55                	push   %r13
  401190:	41 54                	push   %r12
  401192:	55                   	push   %rbp
  401193:	53                   	push   %rbx
  401194:	48 83 ec 08          	sub    $0x8,%rsp
  401198:	41 89 fc             	mov    %edi,%r12d
  40119b:	48 89 f3             	mov    %rsi,%rbx
  40119e:	48 c7 c6 e2 1c 40 00 	mov    $0x401ce2,%rsi
  4011a5:	bf 0b 00 00 00       	mov    $0xb,%edi
  4011aa:	e8 91 fb ff ff       	callq  400d40 <signal@plt>
  4011af:	48 c7 c6 8e 1c 40 00 	mov    $0x401c8e,%rsi
  4011b6:	bf 07 00 00 00       	mov    $0x7,%edi
  4011bb:	e8 80 fb ff ff       	callq  400d40 <signal@plt>
  4011c0:	48 c7 c6 36 1d 40 00 	mov    $0x401d36,%rsi
  4011c7:	bf 04 00 00 00       	mov    $0x4,%edi
  4011cc:	e8 6f fb ff ff       	callq  400d40 <signal@plt>
  4011d1:	83 3d 34 33 20 00 00 	cmpl   $0x0,0x203334(%rip)        # 60450c <is_checker>
  4011d8:	75 20                	jne    4011fa <main+0x6c>
  4011da:	48 8d 2d 5e 1d 00 00 	lea    0x1d5e(%rip),%rbp        # 402f3f <_IO_stdin_used+0x1ef>
  4011e1:	48 8b 05 b8 32 20 00 	mov    0x2032b8(%rip),%rax        # 6044a0 <stdin@@GLIBC_2.2.5>
  4011e8:	48 89 05 01 33 20 00 	mov    %rax,0x203301(%rip)        # 6044f0 <infile>
  4011ef:	41 bd 00 00 00 00    	mov    $0x0,%r13d
  4011f5:	e9 8a 00 00 00       	jmpq   401284 <main+0xf6>
  4011fa:	48 c7 c6 8a 1d 40 00 	mov    $0x401d8a,%rsi
  401201:	bf 0e 00 00 00       	mov    $0xe,%edi
  401206:	e8 35 fb ff ff       	callq  400d40 <signal@plt>
  40120b:	bf 05 00 00 00       	mov    $0x5,%edi
  401210:	e8 fb fa ff ff       	callq  400d10 <alarm@plt>
  401215:	48 8d 2d 28 1d 00 00 	lea    0x1d28(%rip),%rbp        # 402f44 <_IO_stdin_used+0x1f4>
  40121c:	eb c3                	jmp    4011e1 <main+0x53>
  40121e:	48 8b 3b             	mov    (%rbx),%rdi
  401221:	e8 41 fd ff ff       	callq  400f67 <usage>
  401226:	48 8d 35 4d 1f 00 00 	lea    0x1f4d(%rip),%rsi        # 40317a <_IO_stdin_used+0x42a>
  40122d:	48 8b 3d 74 32 20 00 	mov    0x203274(%rip),%rdi        # 6044a8 <optarg@@GLIBC_2.2.5>
  401234:	e8 b7 fb ff ff       	callq  400df0 <fopen@plt>
  401239:	48 89 05 b0 32 20 00 	mov    %rax,0x2032b0(%rip)        # 6044f0 <infile>
  401240:	48 85 c0             	test   %rax,%rax
  401243:	75 3f                	jne    401284 <main+0xf6>
  401245:	48 8b 0d 5c 32 20 00 	mov    0x20325c(%rip),%rcx        # 6044a8 <optarg@@GLIBC_2.2.5>
  40124c:	48 8d 15 f9 1c 00 00 	lea    0x1cf9(%rip),%rdx        # 402f4c <_IO_stdin_used+0x1fc>
  401253:	be 01 00 00 00       	mov    $0x1,%esi
  401258:	48 8b 3d 61 32 20 00 	mov    0x203261(%rip),%rdi        # 6044c0 <stderr@@GLIBC_2.2.5>
  40125f:	e8 ec fb ff ff       	callq  400e50 <__fprintf_chk@plt>
  401264:	b8 01 00 00 00       	mov    $0x1,%eax
  401269:	e9 c4 00 00 00       	jmpq   401332 <main+0x1a4>
  40126e:	ba 10 00 00 00       	mov    $0x10,%edx
  401273:	be 00 00 00 00       	mov    $0x0,%esi
  401278:	48 8b 3d 29 32 20 00 	mov    0x203229(%rip),%rdi        # 6044a8 <optarg@@GLIBC_2.2.5>
  40127f:	e8 8c fb ff ff       	callq  400e10 <strtoul@plt>
  401284:	48 89 ea             	mov    %rbp,%rdx
  401287:	48 89 de             	mov    %rbx,%rsi
  40128a:	44 89 e7             	mov    %r12d,%edi
  40128d:	e8 6e fb ff ff       	callq  400e00 <getopt@plt>
  401292:	3c ff                	cmp    $0xff,%al
  401294:	74 62                	je     4012f8 <main+0x16a>
  401296:	0f be d0             	movsbl %al,%edx
  401299:	83 e8 61             	sub    $0x61,%eax
  40129c:	3c 10                	cmp    $0x10,%al
  40129e:	77 3a                	ja     4012da <main+0x14c>
  4012a0:	0f b6 c0             	movzbl %al,%eax
  4012a3:	48 8d 0d e2 1c 00 00 	lea    0x1ce2(%rip),%rcx        # 402f8c <_IO_stdin_used+0x23c>
  4012aa:	48 63 04 81          	movslq (%rcx,%rax,4),%rax
  4012ae:	48 01 c8             	add    %rcx,%rax
  4012b1:	ff e0                	jmpq   *%rax
  4012b3:	ba 0a 00 00 00       	mov    $0xa,%edx
  4012b8:	be 00 00 00 00       	mov    $0x0,%esi
  4012bd:	48 8b 3d e4 31 20 00 	mov    0x2031e4(%rip),%rdi        # 6044a8 <optarg@@GLIBC_2.2.5>
  4012c4:	e8 a7 fa ff ff       	callq  400d70 <strtol@plt>
  4012c9:	41 89 c5             	mov    %eax,%r13d
  4012cc:	eb b6                	jmp    401284 <main+0xf6>
  4012ce:	c7 05 20 32 20 00 00 	movl   $0x0,0x203220(%rip)        # 6044f8 <notify>
  4012d5:	00 00 00 
  4012d8:	eb aa                	jmp    401284 <main+0xf6>
  4012da:	48 8d 35 88 1c 00 00 	lea    0x1c88(%rip),%rsi        # 402f69 <_IO_stdin_used+0x219>
  4012e1:	bf 01 00 00 00       	mov    $0x1,%edi
  4012e6:	b8 00 00 00 00       	mov    $0x0,%eax
  4012eb:	e8 f0 fa ff ff       	callq  400de0 <__printf_chk@plt>
  4012f0:	48 8b 3b             	mov    (%rbx),%rdi
  4012f3:	e8 6f fc ff ff       	callq  400f67 <usage>
  4012f8:	be 00 00 00 00       	mov    $0x0,%esi
  4012fd:	44 89 ef             	mov    %r13d,%edi
  401300:	e8 fe fc ff ff       	callq  401003 <initialize_target>
  401305:	8b 15 fd 31 20 00    	mov    0x2031fd(%rip),%edx        # 604508 <cookie>
  40130b:	48 8d 35 6a 1c 00 00 	lea    0x1c6a(%rip),%rsi        # 402f7c <_IO_stdin_used+0x22c>
  401312:	bf 01 00 00 00       	mov    $0x1,%edi
  401317:	b8 00 00 00 00       	mov    $0x0,%eax
  40131c:	e8 bf fa ff ff       	callq  400de0 <__printf_chk@plt>
  401321:	48 8b 3d 58 31 20 00 	mov    0x203158(%rip),%rdi        # 604480 <buf_offset>
  401328:	e8 69 0b 00 00       	callq  401e96 <stable_launch>
  40132d:	b8 00 00 00 00       	mov    $0x0,%eax
  401332:	48 83 c4 08          	add    $0x8,%rsp
  401336:	5b                   	pop    %rbx
  401337:	5d                   	pop    %rbp
  401338:	41 5c                	pop    %r12
  40133a:	41 5d                	pop    %r13
  40133c:	c3                   	retq   

000000000040133d <scramble>:
  40133d:	48 83 ec 38          	sub    $0x38,%rsp
  401341:	64 48 8b 04 25 28 00 	mov    %fs:0x28,%rax
  401348:	00 00 
  40134a:	48 89 44 24 28       	mov    %rax,0x28(%rsp)
  40134f:	31 c0                	xor    %eax,%eax
  401351:	eb 10                	jmp    401363 <scramble+0x26>
  401353:	69 d0 5c 83 00 00    	imul   $0x835c,%eax,%edx
  401359:	01 fa                	add    %edi,%edx
  40135b:	89 c1                	mov    %eax,%ecx
  40135d:	89 14 8c             	mov    %edx,(%rsp,%rcx,4)
  401360:	83 c0 01             	add    $0x1,%eax
  401363:	83 f8 09             	cmp    $0x9,%eax
  401366:	76 eb                	jbe    401353 <scramble+0x16>
  401368:	8b 44 24 0c          	mov    0xc(%rsp),%eax
  40136c:	69 c0 b6 df 00 00    	imul   $0xdfb6,%eax,%eax
  401372:	89 44 24 0c          	mov    %eax,0xc(%rsp)
  401376:	8b 44 24 08          	mov    0x8(%rsp),%eax
  40137a:	69 c0 07 13 00 00    	imul   $0x1307,%eax,%eax
  401380:	89 44 24 08          	mov    %eax,0x8(%rsp)
  401384:	8b 44 24 20          	mov    0x20(%rsp),%eax
  401388:	69 c0 fa e4 00 00    	imul   $0xe4fa,%eax,%eax
  40138e:	89 44 24 20          	mov    %eax,0x20(%rsp)
  401392:	8b 44 24 24          	mov    0x24(%rsp),%eax
  401396:	69 c0 2a 27 00 00    	imul   $0x272a,%eax,%eax
  40139c:	89 44 24 24          	mov    %eax,0x24(%rsp)
  4013a0:	8b 44 24 14          	mov    0x14(%rsp),%eax
  4013a4:	69 c0 b8 bc 00 00    	imul   $0xbcb8,%eax,%eax
  4013aa:	89 44 24 14          	mov    %eax,0x14(%rsp)
  4013ae:	8b 44 24 04          	mov    0x4(%rsp),%eax
  4013b2:	69 c0 08 02 00 00    	imul   $0x208,%eax,%eax
  4013b8:	89 44 24 04          	mov    %eax,0x4(%rsp)
  4013bc:	8b 44 24 18          	mov    0x18(%rsp),%eax
  4013c0:	69 c0 6e ef 00 00    	imul   $0xef6e,%eax,%eax
  4013c6:	89 44 24 18          	mov    %eax,0x18(%rsp)
  4013ca:	8b 44 24 20          	mov    0x20(%rsp),%eax
  4013ce:	69 c0 bc 56 00 00    	imul   $0x56bc,%eax,%eax
  4013d4:	89 44 24 20          	mov    %eax,0x20(%rsp)
  4013d8:	8b 04 24             	mov    (%rsp),%eax
  4013db:	69 c0 f0 4f 00 00    	imul   $0x4ff0,%eax,%eax
  4013e1:	89 04 24             	mov    %eax,(%rsp)
  4013e4:	8b 44 24 10          	mov    0x10(%rsp),%eax
  4013e8:	69 c0 d9 0e 00 00    	imul   $0xed9,%eax,%eax
  4013ee:	89 44 24 10          	mov    %eax,0x10(%rsp)
  4013f2:	8b 44 24 0c          	mov    0xc(%rsp),%eax
  4013f6:	69 c0 97 42 00 00    	imul   $0x4297,%eax,%eax
  4013fc:	89 44 24 0c          	mov    %eax,0xc(%rsp)
  401400:	8b 44 24 14          	mov    0x14(%rsp),%eax
  401404:	69 c0 7e 08 00 00    	imul   $0x87e,%eax,%eax
  40140a:	89 44 24 14          	mov    %eax,0x14(%rsp)
  40140e:	8b 44 24 18          	mov    0x18(%rsp),%eax
  401412:	69 c0 e4 6f 00 00    	imul   $0x6fe4,%eax,%eax
  401418:	89 44 24 18          	mov    %eax,0x18(%rsp)
  40141c:	8b 44 24 0c          	mov    0xc(%rsp),%eax
  401420:	69 c0 b0 84 00 00    	imul   $0x84b0,%eax,%eax
  401426:	89 44 24 0c          	mov    %eax,0xc(%rsp)
  40142a:	8b 44 24 04          	mov    0x4(%rsp),%eax
  40142e:	69 c0 cb 23 00 00    	imul   $0x23cb,%eax,%eax
  401434:	89 44 24 04          	mov    %eax,0x4(%rsp)
  401438:	8b 44 24 04          	mov    0x4(%rsp),%eax
  40143c:	69 c0 24 d1 00 00    	imul   $0xd124,%eax,%eax
  401442:	89 44 24 04          	mov    %eax,0x4(%rsp)
  401446:	8b 44 24 04          	mov    0x4(%rsp),%eax
  40144a:	69 c0 5c 8e 00 00    	imul   $0x8e5c,%eax,%eax
  401450:	89 44 24 04          	mov    %eax,0x4(%rsp)
  401454:	8b 04 24             	mov    (%rsp),%eax
  401457:	69 c0 f4 bc 00 00    	imul   $0xbcf4,%eax,%eax
  40145d:	89 04 24             	mov    %eax,(%rsp)
  401460:	8b 44 24 20          	mov    0x20(%rsp),%eax
  401464:	69 c0 b9 68 00 00    	imul   $0x68b9,%eax,%eax
  40146a:	89 44 24 20          	mov    %eax,0x20(%rsp)
  40146e:	8b 44 24 04          	mov    0x4(%rsp),%eax
  401472:	69 c0 25 77 00 00    	imul   $0x7725,%eax,%eax
  401478:	89 44 24 04          	mov    %eax,0x4(%rsp)
  40147c:	8b 44 24 18          	mov    0x18(%rsp),%eax
  401480:	69 c0 bb 4c 00 00    	imul   $0x4cbb,%eax,%eax
  401486:	89 44 24 18          	mov    %eax,0x18(%rsp)
  40148a:	8b 44 24 04          	mov    0x4(%rsp),%eax
  40148e:	69 c0 0a c8 00 00    	imul   $0xc80a,%eax,%eax
  401494:	89 44 24 04          	mov    %eax,0x4(%rsp)
  401498:	8b 44 24 14          	mov    0x14(%rsp),%eax
  40149c:	69 c0 8a f3 00 00    	imul   $0xf38a,%eax,%eax
  4014a2:	89 44 24 14          	mov    %eax,0x14(%rsp)
  4014a6:	8b 44 24 18          	mov    0x18(%rsp),%eax
  4014aa:	69 c0 b5 90 00 00    	imul   $0x90b5,%eax,%eax
  4014b0:	89 44 24 18          	mov    %eax,0x18(%rsp)
  4014b4:	8b 44 24 18          	mov    0x18(%rsp),%eax
  4014b8:	69 c0 89 ba 00 00    	imul   $0xba89,%eax,%eax
  4014be:	89 44 24 18          	mov    %eax,0x18(%rsp)
  4014c2:	8b 44 24 18          	mov    0x18(%rsp),%eax
  4014c6:	69 c0 0c 0d 00 00    	imul   $0xd0c,%eax,%eax
  4014cc:	89 44 24 18          	mov    %eax,0x18(%rsp)
  4014d0:	8b 44 24 20          	mov    0x20(%rsp),%eax
  4014d4:	69 c0 99 ae 00 00    	imul   $0xae99,%eax,%eax
  4014da:	89 44 24 20          	mov    %eax,0x20(%rsp)
  4014de:	8b 44 24 14          	mov    0x14(%rsp),%eax
  4014e2:	69 c0 0a c5 00 00    	imul   $0xc50a,%eax,%eax
  4014e8:	89 44 24 14          	mov    %eax,0x14(%rsp)
  4014ec:	8b 04 24             	mov    (%rsp),%eax
  4014ef:	69 c0 8c 4a 00 00    	imul   $0x4a8c,%eax,%eax
  4014f5:	89 04 24             	mov    %eax,(%rsp)
  4014f8:	8b 44 24 20          	mov    0x20(%rsp),%eax
  4014fc:	69 c0 45 6c 00 00    	imul   $0x6c45,%eax,%eax
  401502:	89 44 24 20          	mov    %eax,0x20(%rsp)
  401506:	8b 44 24 24          	mov    0x24(%rsp),%eax
  40150a:	69 c0 a3 86 00 00    	imul   $0x86a3,%eax,%eax
  401510:	89 44 24 24          	mov    %eax,0x24(%rsp)
  401514:	8b 44 24 1c          	mov    0x1c(%rsp),%eax
  401518:	69 c0 d9 71 00 00    	imul   $0x71d9,%eax,%eax
  40151e:	89 44 24 1c          	mov    %eax,0x1c(%rsp)
  401522:	8b 44 24 1c          	mov    0x1c(%rsp),%eax
  401526:	69 c0 94 21 00 00    	imul   $0x2194,%eax,%eax
  40152c:	89 44 24 1c          	mov    %eax,0x1c(%rsp)
  401530:	8b 44 24 04          	mov    0x4(%rsp),%eax
  401534:	69 c0 56 88 00 00    	imul   $0x8856,%eax,%eax
  40153a:	89 44 24 04          	mov    %eax,0x4(%rsp)
  40153e:	8b 44 24 04          	mov    0x4(%rsp),%eax
  401542:	69 c0 eb 12 00 00    	imul   $0x12eb,%eax,%eax
  401548:	89 44 24 04          	mov    %eax,0x4(%rsp)
  40154c:	8b 44 24 08          	mov    0x8(%rsp),%eax
  401550:	69 c0 bf af 00 00    	imul   $0xafbf,%eax,%eax
  401556:	89 44 24 08          	mov    %eax,0x8(%rsp)
  40155a:	8b 44 24 1c          	mov    0x1c(%rsp),%eax
  40155e:	69 c0 a9 78 00 00    	imul   $0x78a9,%eax,%eax
  401564:	89 44 24 1c          	mov    %eax,0x1c(%rsp)
  401568:	8b 44 24 04          	mov    0x4(%rsp),%eax
  40156c:	69 c0 d0 9b 00 00    	imul   $0x9bd0,%eax,%eax
  401572:	89 44 24 04          	mov    %eax,0x4(%rsp)
  401576:	8b 44 24 24          	mov    0x24(%rsp),%eax
  40157a:	69 c0 90 96 00 00    	imul   $0x9690,%eax,%eax
  401580:	89 44 24 24          	mov    %eax,0x24(%rsp)
  401584:	8b 44 24 04          	mov    0x4(%rsp),%eax
  401588:	69 c0 ae af 00 00    	imul   $0xafae,%eax,%eax
  40158e:	89 44 24 04          	mov    %eax,0x4(%rsp)
  401592:	8b 44 24 08          	mov    0x8(%rsp),%eax
  401596:	69 c0 14 cc 00 00    	imul   $0xcc14,%eax,%eax
  40159c:	89 44 24 08          	mov    %eax,0x8(%rsp)
  4015a0:	8b 44 24 1c          	mov    0x1c(%rsp),%eax
  4015a4:	69 c0 3a 4e 00 00    	imul   $0x4e3a,%eax,%eax
  4015aa:	89 44 24 1c          	mov    %eax,0x1c(%rsp)
  4015ae:	8b 44 24 08          	mov    0x8(%rsp),%eax
  4015b2:	69 c0 45 d2 00 00    	imul   $0xd245,%eax,%eax
  4015b8:	89 44 24 08          	mov    %eax,0x8(%rsp)
  4015bc:	8b 44 24 24          	mov    0x24(%rsp),%eax
  4015c0:	69 c0 2b 99 00 00    	imul   $0x992b,%eax,%eax
  4015c6:	89 44 24 24          	mov    %eax,0x24(%rsp)
  4015ca:	8b 44 24 18          	mov    0x18(%rsp),%eax
  4015ce:	69 c0 fe 5c 00 00    	imul   $0x5cfe,%eax,%eax
  4015d4:	89 44 24 18          	mov    %eax,0x18(%rsp)
  4015d8:	8b 44 24 18          	mov    0x18(%rsp),%eax
  4015dc:	69 c0 29 8b 00 00    	imul   $0x8b29,%eax,%eax
  4015e2:	89 44 24 18          	mov    %eax,0x18(%rsp)
  4015e6:	8b 44 24 24          	mov    0x24(%rsp),%eax
  4015ea:	69 c0 d9 42 00 00    	imul   $0x42d9,%eax,%eax
  4015f0:	89 44 24 24          	mov    %eax,0x24(%rsp)
  4015f4:	8b 44 24 24          	mov    0x24(%rsp),%eax
  4015f8:	69 c0 a1 f8 00 00    	imul   $0xf8a1,%eax,%eax
  4015fe:	89 44 24 24          	mov    %eax,0x24(%rsp)
  401602:	8b 44 24 1c          	mov    0x1c(%rsp),%eax
  401606:	69 c0 d0 2b 00 00    	imul   $0x2bd0,%eax,%eax
  40160c:	89 44 24 1c          	mov    %eax,0x1c(%rsp)
  401610:	8b 44 24 18          	mov    0x18(%rsp),%eax
  401614:	69 c0 ba ee 00 00    	imul   $0xeeba,%eax,%eax
  40161a:	89 44 24 18          	mov    %eax,0x18(%rsp)
  40161e:	8b 44 24 1c          	mov    0x1c(%rsp),%eax
  401622:	69 c0 73 80 00 00    	imul   $0x8073,%eax,%eax
  401628:	89 44 24 1c          	mov    %eax,0x1c(%rsp)
  40162c:	8b 44 24 18          	mov    0x18(%rsp),%eax
  401630:	69 c0 62 9e 00 00    	imul   $0x9e62,%eax,%eax
  401636:	89 44 24 18          	mov    %eax,0x18(%rsp)
  40163a:	8b 44 24 10          	mov    0x10(%rsp),%eax
  40163e:	69 c0 43 16 00 00    	imul   $0x1643,%eax,%eax
  401644:	89 44 24 10          	mov    %eax,0x10(%rsp)
  401648:	8b 44 24 24          	mov    0x24(%rsp),%eax
  40164c:	69 c0 50 65 00 00    	imul   $0x6550,%eax,%eax
  401652:	89 44 24 24          	mov    %eax,0x24(%rsp)
  401656:	8b 04 24             	mov    (%rsp),%eax
  401659:	69 c0 b8 66 00 00    	imul   $0x66b8,%eax,%eax
  40165f:	89 04 24             	mov    %eax,(%rsp)
  401662:	8b 44 24 08          	mov    0x8(%rsp),%eax
  401666:	69 c0 ed fd 00 00    	imul   $0xfded,%eax,%eax
  40166c:	89 44 24 08          	mov    %eax,0x8(%rsp)
  401670:	8b 44 24 0c          	mov    0xc(%rsp),%eax
  401674:	69 c0 b8 d1 00 00    	imul   $0xd1b8,%eax,%eax
  40167a:	89 44 24 0c          	mov    %eax,0xc(%rsp)
  40167e:	8b 44 24 1c          	mov    0x1c(%rsp),%eax
  401682:	69 c0 79 ad 00 00    	imul   $0xad79,%eax,%eax
  401688:	89 44 24 1c          	mov    %eax,0x1c(%rsp)
  40168c:	8b 44 24 18          	mov    0x18(%rsp),%eax
  401690:	69 c0 6b 5f 00 00    	imul   $0x5f6b,%eax,%eax
  401696:	89 44 24 18          	mov    %eax,0x18(%rsp)
  40169a:	8b 44 24 24          	mov    0x24(%rsp),%eax
  40169e:	69 c0 cf c0 00 00    	imul   $0xc0cf,%eax,%eax
  4016a4:	89 44 24 24          	mov    %eax,0x24(%rsp)
  4016a8:	8b 44 24 18          	mov    0x18(%rsp),%eax
  4016ac:	69 c0 14 4c 00 00    	imul   $0x4c14,%eax,%eax
  4016b2:	89 44 24 18          	mov    %eax,0x18(%rsp)
  4016b6:	8b 44 24 04          	mov    0x4(%rsp),%eax
  4016ba:	69 c0 0b a0 00 00    	imul   $0xa00b,%eax,%eax
  4016c0:	89 44 24 04          	mov    %eax,0x4(%rsp)
  4016c4:	8b 44 24 14          	mov    0x14(%rsp),%eax
  4016c8:	69 c0 fb 48 00 00    	imul   $0x48fb,%eax,%eax
  4016ce:	89 44 24 14          	mov    %eax,0x14(%rsp)
  4016d2:	8b 44 24 18          	mov    0x18(%rsp),%eax
  4016d6:	69 c0 5a f3 00 00    	imul   $0xf35a,%eax,%eax
  4016dc:	89 44 24 18          	mov    %eax,0x18(%rsp)
  4016e0:	8b 44 24 14          	mov    0x14(%rsp),%eax
  4016e4:	69 c0 a4 19 00 00    	imul   $0x19a4,%eax,%eax
  4016ea:	89 44 24 14          	mov    %eax,0x14(%rsp)
  4016ee:	8b 44 24 0c          	mov    0xc(%rsp),%eax
  4016f2:	69 c0 88 b3 00 00    	imul   $0xb388,%eax,%eax
  4016f8:	89 44 24 0c          	mov    %eax,0xc(%rsp)
  4016fc:	8b 44 24 10          	mov    0x10(%rsp),%eax
  401700:	69 c0 8e 80 00 00    	imul   $0x808e,%eax,%eax
  401706:	89 44 24 10          	mov    %eax,0x10(%rsp)
  40170a:	8b 44 24 24          	mov    0x24(%rsp),%eax
  40170e:	69 c0 34 93 00 00    	imul   $0x9334,%eax,%eax
  401714:	89 44 24 24          	mov    %eax,0x24(%rsp)
  401718:	8b 44 24 08          	mov    0x8(%rsp),%eax
  40171c:	69 c0 1d 8c 00 00    	imul   $0x8c1d,%eax,%eax
  401722:	89 44 24 08          	mov    %eax,0x8(%rsp)
  401726:	8b 44 24 1c          	mov    0x1c(%rsp),%eax
  40172a:	69 c0 a5 43 00 00    	imul   $0x43a5,%eax,%eax
  401730:	89 44 24 1c          	mov    %eax,0x1c(%rsp)
  401734:	8b 44 24 10          	mov    0x10(%rsp),%eax
  401738:	69 c0 82 0d 00 00    	imul   $0xd82,%eax,%eax
  40173e:	89 44 24 10          	mov    %eax,0x10(%rsp)
  401742:	8b 44 24 18          	mov    0x18(%rsp),%eax
  401746:	69 c0 a1 25 00 00    	imul   $0x25a1,%eax,%eax
  40174c:	89 44 24 18          	mov    %eax,0x18(%rsp)
  401750:	8b 04 24             	mov    (%rsp),%eax
  401753:	69 c0 b9 8d 00 00    	imul   $0x8db9,%eax,%eax
  401759:	89 04 24             	mov    %eax,(%rsp)
  40175c:	8b 44 24 18          	mov    0x18(%rsp),%eax
  401760:	69 c0 38 83 00 00    	imul   $0x8338,%eax,%eax
  401766:	89 44 24 18          	mov    %eax,0x18(%rsp)
  40176a:	8b 44 24 0c          	mov    0xc(%rsp),%eax
  40176e:	69 c0 bf 19 00 00    	imul   $0x19bf,%eax,%eax
  401774:	89 44 24 0c          	mov    %eax,0xc(%rsp)
  401778:	ba 00 00 00 00       	mov    $0x0,%edx
  40177d:	b8 00 00 00 00       	mov    $0x0,%eax
  401782:	eb 0a                	jmp    40178e <scramble+0x451>
  401784:	89 d1                	mov    %edx,%ecx
  401786:	8b 0c 8c             	mov    (%rsp,%rcx,4),%ecx
  401789:	01 c8                	add    %ecx,%eax
  40178b:	83 c2 01             	add    $0x1,%edx
  40178e:	83 fa 09             	cmp    $0x9,%edx
  401791:	76 f1                	jbe    401784 <scramble+0x447>
  401793:	48 8b 74 24 28       	mov    0x28(%rsp),%rsi
  401798:	64 48 33 34 25 28 00 	xor    %fs:0x28,%rsi
  40179f:	00 00 
  4017a1:	75 05                	jne    4017a8 <scramble+0x46b>
  4017a3:	48 83 c4 38          	add    $0x38,%rsp
  4017a7:	c3                   	retq   
  4017a8:	e8 33 f5 ff ff       	callq  400ce0 <__stack_chk_fail@plt>

00000000004017ad <getbuf>:
  4017ad:	48 83 ec 18          	sub    $0x18,%rsp
  4017b1:	48 89 e7             	mov    %rsp,%rdi
  4017b4:	e8 94 02 00 00       	callq  401a4d <Gets>
  4017b9:	b8 01 00 00 00       	mov    $0x1,%eax
  4017be:	48 83 c4 18          	add    $0x18,%rsp
  4017c2:	c3                   	retq   

00000000004017c3 <touch1>:
  4017c3:	48 83 ec 08          	sub    $0x8,%rsp
  4017c7:	c7 05 2f 2d 20 00 01 	movl   $0x1,0x202d2f(%rip)        # 604500 <vlevel>
  4017ce:	00 00 00 
  4017d1:	48 8d 3d 46 18 00 00 	lea    0x1846(%rip),%rdi        # 40301e <_IO_stdin_used+0x2ce>
  4017d8:	e8 e3 f4 ff ff       	callq  400cc0 <puts@plt>
  4017dd:	bf 01 00 00 00       	mov    $0x1,%edi
  4017e2:	e8 af 03 00 00       	callq  401b96 <validate>
  4017e7:	bf 00 00 00 00       	mov    $0x0,%edi
  4017ec:	e8 3f f6 ff ff       	callq  400e30 <exit@plt>

00000000004017f1 <touch2>:
  4017f1:	48 83 ec 08          	sub    $0x8,%rsp
  4017f5:	89 fa                	mov    %edi,%edx
  4017f7:	c7 05 ff 2c 20 00 02 	movl   $0x2,0x202cff(%rip)        # 604500 <vlevel>
  4017fe:	00 00 00 
  401801:	39 3d 01 2d 20 00    	cmp    %edi,0x202d01(%rip)        # 604508 <cookie>
  401807:	74 2a                	je     401833 <touch2+0x42>
  401809:	48 8d 35 58 18 00 00 	lea    0x1858(%rip),%rsi        # 403068 <_IO_stdin_used+0x318>
  401810:	bf 01 00 00 00       	mov    $0x1,%edi
  401815:	b8 00 00 00 00       	mov    $0x0,%eax
  40181a:	e8 c1 f5 ff ff       	callq  400de0 <__printf_chk@plt>
  40181f:	bf 02 00 00 00       	mov    $0x2,%edi
  401824:	e8 3d 04 00 00       	callq  401c66 <fail>
  401829:	bf 00 00 00 00       	mov    $0x0,%edi
  40182e:	e8 fd f5 ff ff       	callq  400e30 <exit@plt>
  401833:	48 8d 35 06 18 00 00 	lea    0x1806(%rip),%rsi        # 403040 <_IO_stdin_used+0x2f0>
  40183a:	bf 01 00 00 00       	mov    $0x1,%edi
  40183f:	b8 00 00 00 00       	mov    $0x0,%eax
  401844:	e8 97 f5 ff ff       	callq  400de0 <__printf_chk@plt>
  401849:	bf 02 00 00 00       	mov    $0x2,%edi
  40184e:	e8 43 03 00 00       	callq  401b96 <validate>
  401853:	eb d4                	jmp    401829 <touch2+0x38>

0000000000401855 <hexmatch>:
  401855:	41 54                	push   %r12
  401857:	55                   	push   %rbp
  401858:	53                   	push   %rbx
  401859:	48 83 c4 80          	add    $0xffffffffffffff80,%rsp
  40185d:	89 fd                	mov    %edi,%ebp
  40185f:	48 89 f3             	mov    %rsi,%rbx
  401862:	64 48 8b 04 25 28 00 	mov    %fs:0x28,%rax
  401869:	00 00 
  40186b:	48 89 44 24 78       	mov    %rax,0x78(%rsp)
  401870:	31 c0                	xor    %eax,%eax
  401872:	e8 29 f5 ff ff       	callq  400da0 <random@plt>
  401877:	48 89 c1             	mov    %rax,%rcx
  40187a:	48 ba 0b d7 a3 70 3d 	movabs $0xa3d70a3d70a3d70b,%rdx
  401881:	0a d7 a3 
  401884:	48 f7 ea             	imul   %rdx
  401887:	48 01 ca             	add    %rcx,%rdx
  40188a:	48 c1 fa 06          	sar    $0x6,%rdx
  40188e:	48 89 c8             	mov    %rcx,%rax
  401891:	48 c1 f8 3f          	sar    $0x3f,%rax
  401895:	48 29 c2             	sub    %rax,%rdx
  401898:	48 8d 04 92          	lea    (%rdx,%rdx,4),%rax
  40189c:	48 8d 14 80          	lea    (%rax,%rax,4),%rdx
  4018a0:	48 8d 04 95 00 00 00 	lea    0x0(,%rdx,4),%rax
  4018a7:	00 
  4018a8:	48 29 c1             	sub    %rax,%rcx
  4018ab:	4c 8d 24 0c          	lea    (%rsp,%rcx,1),%r12
  4018af:	41 89 e8             	mov    %ebp,%r8d
  4018b2:	48 8d 0d 82 17 00 00 	lea    0x1782(%rip),%rcx        # 40303b <_IO_stdin_used+0x2eb>
  4018b9:	48 c7 c2 ff ff ff ff 	mov    $0xffffffffffffffff,%rdx
  4018c0:	be 01 00 00 00       	mov    $0x1,%esi
  4018c5:	4c 89 e7             	mov    %r12,%rdi
  4018c8:	b8 00 00 00 00       	mov    $0x0,%eax
  4018cd:	e8 8e f5 ff ff       	callq  400e60 <__sprintf_chk@plt>
  4018d2:	ba 09 00 00 00       	mov    $0x9,%edx
  4018d7:	4c 89 e6             	mov    %r12,%rsi
  4018da:	48 89 df             	mov    %rbx,%rdi
  4018dd:	e8 be f3 ff ff       	callq  400ca0 <strncmp@plt>
  4018e2:	85 c0                	test   %eax,%eax
  4018e4:	0f 94 c0             	sete   %al
  4018e7:	48 8b 5c 24 78       	mov    0x78(%rsp),%rbx
  4018ec:	64 48 33 1c 25 28 00 	xor    %fs:0x28,%rbx
  4018f3:	00 00 
  4018f5:	75 0c                	jne    401903 <hexmatch+0xae>
  4018f7:	0f b6 c0             	movzbl %al,%eax
  4018fa:	48 83 ec 80          	sub    $0xffffffffffffff80,%rsp
  4018fe:	5b                   	pop    %rbx
  4018ff:	5d                   	pop    %rbp
  401900:	41 5c                	pop    %r12
  401902:	c3                   	retq   
  401903:	e8 d8 f3 ff ff       	callq  400ce0 <__stack_chk_fail@plt>

0000000000401908 <touch3>:
  401908:	53                   	push   %rbx
  401909:	48 89 fb             	mov    %rdi,%rbx
  40190c:	c7 05 ea 2b 20 00 03 	movl   $0x3,0x202bea(%rip)        # 604500 <vlevel>
  401913:	00 00 00 
  401916:	48 89 fe             	mov    %rdi,%rsi
  401919:	8b 3d e9 2b 20 00    	mov    0x202be9(%rip),%edi        # 604508 <cookie>
  40191f:	e8 31 ff ff ff       	callq  401855 <hexmatch>
  401924:	85 c0                	test   %eax,%eax
  401926:	74 2d                	je     401955 <touch3+0x4d>
  401928:	48 89 da             	mov    %rbx,%rdx
  40192b:	48 8d 35 5e 17 00 00 	lea    0x175e(%rip),%rsi        # 403090 <_IO_stdin_used+0x340>
  401932:	bf 01 00 00 00       	mov    $0x1,%edi
  401937:	b8 00 00 00 00       	mov    $0x0,%eax
  40193c:	e8 9f f4 ff ff       	callq  400de0 <__printf_chk@plt>
  401941:	bf 03 00 00 00       	mov    $0x3,%edi
  401946:	e8 4b 02 00 00       	callq  401b96 <validate>
  40194b:	bf 00 00 00 00       	mov    $0x0,%edi
  401950:	e8 db f4 ff ff       	callq  400e30 <exit@plt>
  401955:	48 89 da             	mov    %rbx,%rdx
  401958:	48 8d 35 59 17 00 00 	lea    0x1759(%rip),%rsi        # 4030b8 <_IO_stdin_used+0x368>
  40195f:	bf 01 00 00 00       	mov    $0x1,%edi
  401964:	b8 00 00 00 00       	mov    $0x0,%eax
  401969:	e8 72 f4 ff ff       	callq  400de0 <__printf_chk@plt>
  40196e:	bf 03 00 00 00       	mov    $0x3,%edi
  401973:	e8 ee 02 00 00       	callq  401c66 <fail>
  401978:	eb d1                	jmp    40194b <touch3+0x43>

000000000040197a <test>:
  40197a:	48 83 ec 08          	sub    $0x8,%rsp
  40197e:	b8 00 00 00 00       	mov    $0x0,%eax
  401983:	e8 25 fe ff ff       	callq  4017ad <getbuf>
  401988:	89 c2                	mov    %eax,%edx
  40198a:	48 8d 35 4f 17 00 00 	lea    0x174f(%rip),%rsi        # 4030e0 <_IO_stdin_used+0x390>
  401991:	bf 01 00 00 00       	mov    $0x1,%edi
  401996:	b8 00 00 00 00       	mov    $0x0,%eax
  40199b:	e8 40 f4 ff ff       	callq  400de0 <__printf_chk@plt>
  4019a0:	48 83 c4 08          	add    $0x8,%rsp
  4019a4:	c3                   	retq   

00000000004019a5 <save_char>:
  4019a5:	8b 05 79 37 20 00    	mov    0x203779(%rip),%eax        # 605124 <gets_cnt>
  4019ab:	3d ff 03 00 00       	cmp    $0x3ff,%eax
  4019b0:	7f 4a                	jg     4019fc <save_char+0x57>
  4019b2:	89 f9                	mov    %edi,%ecx
  4019b4:	c0 e9 04             	shr    $0x4,%cl
  4019b7:	8d 14 40             	lea    (%rax,%rax,2),%edx
  4019ba:	4c 8d 05 8f 19 00 00 	lea    0x198f(%rip),%r8        # 403350 <trans_char>
  4019c1:	83 e1 0f             	and    $0xf,%ecx
  4019c4:	45 0f b6 0c 08       	movzbl (%r8,%rcx,1),%r9d
  4019c9:	48 8d 0d 50 2b 20 00 	lea    0x202b50(%rip),%rcx        # 604520 <gets_buf>
  4019d0:	48 63 f2             	movslq %edx,%rsi
  4019d3:	44 88 0c 31          	mov    %r9b,(%rcx,%rsi,1)
  4019d7:	8d 72 01             	lea    0x1(%rdx),%esi
  4019da:	83 e7 0f             	and    $0xf,%edi
  4019dd:	41 0f b6 3c 38       	movzbl (%r8,%rdi,1),%edi
  4019e2:	48 63 f6             	movslq %esi,%rsi
  4019e5:	40 88 3c 31          	mov    %dil,(%rcx,%rsi,1)
  4019e9:	83 c2 02             	add    $0x2,%edx
  4019ec:	48 63 d2             	movslq %edx,%rdx
  4019ef:	c6 04 11 20          	movb   $0x20,(%rcx,%rdx,1)
  4019f3:	83 c0 01             	add    $0x1,%eax
  4019f6:	89 05 28 37 20 00    	mov    %eax,0x203728(%rip)        # 605124 <gets_cnt>
  4019fc:	f3 c3                	repz retq 

00000000004019fe <save_term>:
  4019fe:	8b 05 20 37 20 00    	mov    0x203720(%rip),%eax        # 605124 <gets_cnt>
  401a04:	8d 04 40             	lea    (%rax,%rax,2),%eax
  401a07:	48 98                	cltq   
  401a09:	48 8d 15 10 2b 20 00 	lea    0x202b10(%rip),%rdx        # 604520 <gets_buf>
  401a10:	c6 04 02 00          	movb   $0x0,(%rdx,%rax,1)
  401a14:	c3                   	retq   

0000000000401a15 <check_fail>:
  401a15:	48 83 ec 08          	sub    $0x8,%rsp
  401a19:	0f be 15 08 37 20 00 	movsbl 0x203708(%rip),%edx        # 605128 <target_prefix>
  401a20:	4c 8d 05 f9 2a 20 00 	lea    0x202af9(%rip),%r8        # 604520 <gets_buf>
  401a27:	8b 0d cf 2a 20 00    	mov    0x202acf(%rip),%ecx        # 6044fc <check_level>
  401a2d:	48 8d 35 cf 16 00 00 	lea    0x16cf(%rip),%rsi        # 403103 <_IO_stdin_used+0x3b3>
  401a34:	bf 01 00 00 00       	mov    $0x1,%edi
  401a39:	b8 00 00 00 00       	mov    $0x0,%eax
  401a3e:	e8 9d f3 ff ff       	callq  400de0 <__printf_chk@plt>
  401a43:	bf 01 00 00 00       	mov    $0x1,%edi
  401a48:	e8 e3 f3 ff ff       	callq  400e30 <exit@plt>

0000000000401a4d <Gets>:
  401a4d:	41 54                	push   %r12
  401a4f:	55                   	push   %rbp
  401a50:	53                   	push   %rbx
  401a51:	49 89 fc             	mov    %rdi,%r12
  401a54:	c7 05 c6 36 20 00 00 	movl   $0x0,0x2036c6(%rip)        # 605124 <gets_cnt>
  401a5b:	00 00 00 
  401a5e:	48 89 fb             	mov    %rdi,%rbx
  401a61:	eb 11                	jmp    401a74 <Gets+0x27>
  401a63:	48 8d 6b 01          	lea    0x1(%rbx),%rbp
  401a67:	88 03                	mov    %al,(%rbx)
  401a69:	0f b6 f8             	movzbl %al,%edi
  401a6c:	e8 34 ff ff ff       	callq  4019a5 <save_char>
  401a71:	48 89 eb             	mov    %rbp,%rbx
  401a74:	48 8b 3d 75 2a 20 00 	mov    0x202a75(%rip),%rdi        # 6044f0 <infile>
  401a7b:	e8 30 f3 ff ff       	callq  400db0 <_IO_getc@plt>
  401a80:	83 f8 ff             	cmp    $0xffffffff,%eax
  401a83:	74 05                	je     401a8a <Gets+0x3d>
  401a85:	83 f8 0a             	cmp    $0xa,%eax
  401a88:	75 d9                	jne    401a63 <Gets+0x16>
  401a8a:	c6 03 00             	movb   $0x0,(%rbx)
  401a8d:	b8 00 00 00 00       	mov    $0x0,%eax
  401a92:	e8 67 ff ff ff       	callq  4019fe <save_term>
  401a97:	4c 89 e0             	mov    %r12,%rax
  401a9a:	5b                   	pop    %rbx
  401a9b:	5d                   	pop    %rbp
  401a9c:	41 5c                	pop    %r12
  401a9e:	c3                   	retq   

0000000000401a9f <notify_server>:
  401a9f:	53                   	push   %rbx
  401aa0:	48 81 ec 10 20 00 00 	sub    $0x2010,%rsp
  401aa7:	64 48 8b 04 25 28 00 	mov    %fs:0x28,%rax
  401aae:	00 00 
  401ab0:	48 89 84 24 08 20 00 	mov    %rax,0x2008(%rsp)
  401ab7:	00 
  401ab8:	31 c0                	xor    %eax,%eax
  401aba:	83 3d 4b 2a 20 00 00 	cmpl   $0x0,0x202a4b(%rip)        # 60450c <is_checker>
  401ac1:	75 7c                	jne    401b3f <notify_server+0xa0>
  401ac3:	8b 05 5b 36 20 00    	mov    0x20365b(%rip),%eax        # 605124 <gets_cnt>
  401ac9:	83 c0 64             	add    $0x64,%eax
  401acc:	3d 00 20 00 00       	cmp    $0x2000,%eax
  401ad1:	0f 8f 84 00 00 00    	jg     401b5b <notify_server+0xbc>
  401ad7:	0f be 05 4a 36 20 00 	movsbl 0x20364a(%rip),%eax        # 605128 <target_prefix>
  401ade:	83 3d 13 2a 20 00 00 	cmpl   $0x0,0x202a13(%rip)        # 6044f8 <notify>
  401ae5:	0f 84 90 00 00 00    	je     401b7b <notify_server+0xdc>
  401aeb:	8b 15 13 2a 20 00    	mov    0x202a13(%rip),%edx        # 604504 <authkey>
  401af1:	85 ff                	test   %edi,%edi
  401af3:	0f 85 8c 00 00 00    	jne    401b85 <notify_server+0xe6>
  401af9:	48 8d 1d 1e 16 00 00 	lea    0x161e(%rip),%rbx        # 40311e <_IO_stdin_used+0x3ce>
  401b00:	48 89 e7             	mov    %rsp,%rdi
  401b03:	48 8d 0d 16 2a 20 00 	lea    0x202a16(%rip),%rcx        # 604520 <gets_buf>
  401b0a:	51                   	push   %rcx
  401b0b:	56                   	push   %rsi
  401b0c:	50                   	push   %rax
  401b0d:	52                   	push   %rdx
  401b0e:	49 89 d9             	mov    %rbx,%r9
  401b11:	44 8b 05 18 26 20 00 	mov    0x202618(%rip),%r8d        # 604130 <target_id>
  401b18:	48 8d 0d 04 16 00 00 	lea    0x1604(%rip),%rcx        # 403123 <_IO_stdin_used+0x3d3>
  401b1f:	ba 00 20 00 00       	mov    $0x2000,%edx
  401b24:	be 01 00 00 00       	mov    $0x1,%esi
  401b29:	b8 00 00 00 00       	mov    $0x0,%eax
  401b2e:	e8 2d f3 ff ff       	callq  400e60 <__sprintf_chk@plt>
  401b33:	48 83 c4 20          	add    $0x20,%rsp
  401b37:	48 89 df             	mov    %rbx,%rdi
  401b3a:	e8 81 f1 ff ff       	callq  400cc0 <puts@plt>
  401b3f:	48 8b 84 24 08 20 00 	mov    0x2008(%rsp),%rax
  401b46:	00 
  401b47:	64 48 33 04 25 28 00 	xor    %fs:0x28,%rax
  401b4e:	00 00 
  401b50:	75 3f                	jne    401b91 <notify_server+0xf2>
  401b52:	48 81 c4 10 20 00 00 	add    $0x2010,%rsp
  401b59:	5b                   	pop    %rbx
  401b5a:	c3                   	retq   
  401b5b:	48 8d 35 86 16 00 00 	lea    0x1686(%rip),%rsi        # 4031e8 <_IO_stdin_used+0x498>
  401b62:	bf 01 00 00 00       	mov    $0x1,%edi
  401b67:	b8 00 00 00 00       	mov    $0x0,%eax
  401b6c:	e8 6f f2 ff ff       	callq  400de0 <__printf_chk@plt>
  401b71:	bf 01 00 00 00       	mov    $0x1,%edi
  401b76:	e8 b5 f2 ff ff       	callq  400e30 <exit@plt>
  401b7b:	ba ff ff ff ff       	mov    $0xffffffff,%edx
  401b80:	e9 6c ff ff ff       	jmpq   401af1 <notify_server+0x52>
  401b85:	48 8d 1d 8d 15 00 00 	lea    0x158d(%rip),%rbx        # 403119 <_IO_stdin_used+0x3c9>
  401b8c:	e9 6f ff ff ff       	jmpq   401b00 <notify_server+0x61>
  401b91:	e8 4a f1 ff ff       	callq  400ce0 <__stack_chk_fail@plt>

0000000000401b96 <validate>:
  401b96:	53                   	push   %rbx
  401b97:	89 fb                	mov    %edi,%ebx
  401b99:	83 3d 6c 29 20 00 00 	cmpl   $0x0,0x20296c(%rip)        # 60450c <is_checker>
  401ba0:	74 72                	je     401c14 <validate+0x7e>
  401ba2:	39 3d 58 29 20 00    	cmp    %edi,0x202958(%rip)        # 604500 <vlevel>
  401ba8:	75 32                	jne    401bdc <validate+0x46>
  401baa:	8b 15 4c 29 20 00    	mov    0x20294c(%rip),%edx        # 6044fc <check_level>
  401bb0:	39 fa                	cmp    %edi,%edx
  401bb2:	75 3e                	jne    401bf2 <validate+0x5c>
  401bb4:	0f be 15 6d 35 20 00 	movsbl 0x20356d(%rip),%edx        # 605128 <target_prefix>
  401bbb:	4c 8d 05 5e 29 20 00 	lea    0x20295e(%rip),%r8        # 604520 <gets_buf>
  401bc2:	89 f9                	mov    %edi,%ecx
  401bc4:	48 8d 35 92 15 00 00 	lea    0x1592(%rip),%rsi        # 40315d <_IO_stdin_used+0x40d>
  401bcb:	bf 01 00 00 00       	mov    $0x1,%edi
  401bd0:	b8 00 00 00 00       	mov    $0x0,%eax
  401bd5:	e8 06 f2 ff ff       	callq  400de0 <__printf_chk@plt>
  401bda:	5b                   	pop    %rbx
  401bdb:	c3                   	retq   
  401bdc:	48 8d 3d 5c 15 00 00 	lea    0x155c(%rip),%rdi        # 40313f <_IO_stdin_used+0x3ef>
  401be3:	e8 d8 f0 ff ff       	callq  400cc0 <puts@plt>
  401be8:	b8 00 00 00 00       	mov    $0x0,%eax
  401bed:	e8 23 fe ff ff       	callq  401a15 <check_fail>
  401bf2:	89 f9                	mov    %edi,%ecx
  401bf4:	48 8d 35 1d 16 00 00 	lea    0x161d(%rip),%rsi        # 403218 <_IO_stdin_used+0x4c8>
  401bfb:	bf 01 00 00 00       	mov    $0x1,%edi
  401c00:	b8 00 00 00 00       	mov    $0x0,%eax
  401c05:	e8 d6 f1 ff ff       	callq  400de0 <__printf_chk@plt>
  401c0a:	b8 00 00 00 00       	mov    $0x0,%eax
  401c0f:	e8 01 fe ff ff       	callq  401a15 <check_fail>
  401c14:	39 3d e6 28 20 00    	cmp    %edi,0x2028e6(%rip)        # 604500 <vlevel>
  401c1a:	74 1a                	je     401c36 <validate+0xa0>
  401c1c:	48 8d 3d 1c 15 00 00 	lea    0x151c(%rip),%rdi        # 40313f <_IO_stdin_used+0x3ef>
  401c23:	e8 98 f0 ff ff       	callq  400cc0 <puts@plt>
  401c28:	89 de                	mov    %ebx,%esi
  401c2a:	bf 00 00 00 00       	mov    $0x0,%edi
  401c2f:	e8 6b fe ff ff       	callq  401a9f <notify_server>
  401c34:	eb a4                	jmp    401bda <validate+0x44>
  401c36:	0f be 0d eb 34 20 00 	movsbl 0x2034eb(%rip),%ecx        # 605128 <target_prefix>
  401c3d:	89 fa                	mov    %edi,%edx
  401c3f:	48 8d 35 fa 15 00 00 	lea    0x15fa(%rip),%rsi        # 403240 <_IO_stdin_used+0x4f0>
  401c46:	bf 01 00 00 00       	mov    $0x1,%edi
  401c4b:	b8 00 00 00 00       	mov    $0x0,%eax
  401c50:	e8 8b f1 ff ff       	callq  400de0 <__printf_chk@plt>
  401c55:	89 de                	mov    %ebx,%esi
  401c57:	bf 01 00 00 00       	mov    $0x1,%edi
  401c5c:	e8 3e fe ff ff       	callq  401a9f <notify_server>
  401c61:	e9 74 ff ff ff       	jmpq   401bda <validate+0x44>

0000000000401c66 <fail>:
  401c66:	48 83 ec 08          	sub    $0x8,%rsp
  401c6a:	83 3d 9b 28 20 00 00 	cmpl   $0x0,0x20289b(%rip)        # 60450c <is_checker>
  401c71:	75 11                	jne    401c84 <fail+0x1e>
  401c73:	89 fe                	mov    %edi,%esi
  401c75:	bf 00 00 00 00       	mov    $0x0,%edi
  401c7a:	e8 20 fe ff ff       	callq  401a9f <notify_server>
  401c7f:	48 83 c4 08          	add    $0x8,%rsp
  401c83:	c3                   	retq   
  401c84:	b8 00 00 00 00       	mov    $0x0,%eax
  401c89:	e8 87 fd ff ff       	callq  401a15 <check_fail>

0000000000401c8e <bushandler>:
  401c8e:	48 83 ec 08          	sub    $0x8,%rsp
  401c92:	83 3d 73 28 20 00 00 	cmpl   $0x0,0x202873(%rip)        # 60450c <is_checker>
  401c99:	74 16                	je     401cb1 <bushandler+0x23>
  401c9b:	48 8d 3d d0 14 00 00 	lea    0x14d0(%rip),%rdi        # 403172 <_IO_stdin_used+0x422>
  401ca2:	e8 19 f0 ff ff       	callq  400cc0 <puts@plt>
  401ca7:	b8 00 00 00 00       	mov    $0x0,%eax
  401cac:	e8 64 fd ff ff       	callq  401a15 <check_fail>
  401cb1:	48 8d 3d c0 15 00 00 	lea    0x15c0(%rip),%rdi        # 403278 <_IO_stdin_used+0x528>
  401cb8:	e8 03 f0 ff ff       	callq  400cc0 <puts@plt>
  401cbd:	48 8d 3d b8 14 00 00 	lea    0x14b8(%rip),%rdi        # 40317c <_IO_stdin_used+0x42c>
  401cc4:	e8 f7 ef ff ff       	callq  400cc0 <puts@plt>
  401cc9:	be 00 00 00 00       	mov    $0x0,%esi
  401cce:	bf 00 00 00 00       	mov    $0x0,%edi
  401cd3:	e8 c7 fd ff ff       	callq  401a9f <notify_server>
  401cd8:	bf 01 00 00 00       	mov    $0x1,%edi
  401cdd:	e8 4e f1 ff ff       	callq  400e30 <exit@plt>

0000000000401ce2 <seghandler>:
  401ce2:	48 83 ec 08          	sub    $0x8,%rsp
  401ce6:	83 3d 1f 28 20 00 00 	cmpl   $0x0,0x20281f(%rip)        # 60450c <is_checker>
  401ced:	74 16                	je     401d05 <seghandler+0x23>
  401cef:	48 8d 3d 9c 14 00 00 	lea    0x149c(%rip),%rdi        # 403192 <_IO_stdin_used+0x442>
  401cf6:	e8 c5 ef ff ff       	callq  400cc0 <puts@plt>
  401cfb:	b8 00 00 00 00       	mov    $0x0,%eax
  401d00:	e8 10 fd ff ff       	callq  401a15 <check_fail>
  401d05:	48 8d 3d 8c 15 00 00 	lea    0x158c(%rip),%rdi        # 403298 <_IO_stdin_used+0x548>
  401d0c:	e8 af ef ff ff       	callq  400cc0 <puts@plt>
  401d11:	48 8d 3d 64 14 00 00 	lea    0x1464(%rip),%rdi        # 40317c <_IO_stdin_used+0x42c>
  401d18:	e8 a3 ef ff ff       	callq  400cc0 <puts@plt>
  401d1d:	be 00 00 00 00       	mov    $0x0,%esi
  401d22:	bf 00 00 00 00       	mov    $0x0,%edi
  401d27:	e8 73 fd ff ff       	callq  401a9f <notify_server>
  401d2c:	bf 01 00 00 00       	mov    $0x1,%edi
  401d31:	e8 fa f0 ff ff       	callq  400e30 <exit@plt>

0000000000401d36 <illegalhandler>:
  401d36:	48 83 ec 08          	sub    $0x8,%rsp
  401d3a:	83 3d cb 27 20 00 00 	cmpl   $0x0,0x2027cb(%rip)        # 60450c <is_checker>
  401d41:	74 16                	je     401d59 <illegalhandler+0x23>
  401d43:	48 8d 3d 5b 14 00 00 	lea    0x145b(%rip),%rdi        # 4031a5 <_IO_stdin_used+0x455>
  401d4a:	e8 71 ef ff ff       	callq  400cc0 <puts@plt>
  401d4f:	b8 00 00 00 00       	mov    $0x0,%eax
  401d54:	e8 bc fc ff ff       	callq  401a15 <check_fail>
  401d59:	48 8d 3d 60 15 00 00 	lea    0x1560(%rip),%rdi        # 4032c0 <_IO_stdin_used+0x570>
  401d60:	e8 5b ef ff ff       	callq  400cc0 <puts@plt>
  401d65:	48 8d 3d 10 14 00 00 	lea    0x1410(%rip),%rdi        # 40317c <_IO_stdin_used+0x42c>
  401d6c:	e8 4f ef ff ff       	callq  400cc0 <puts@plt>
  401d71:	be 00 00 00 00       	mov    $0x0,%esi
  401d76:	bf 00 00 00 00       	mov    $0x0,%edi
  401d7b:	e8 1f fd ff ff       	callq  401a9f <notify_server>
  401d80:	bf 01 00 00 00       	mov    $0x1,%edi
  401d85:	e8 a6 f0 ff ff       	callq  400e30 <exit@plt>

0000000000401d8a <sigalrmhandler>:
  401d8a:	48 83 ec 08          	sub    $0x8,%rsp
  401d8e:	83 3d 77 27 20 00 00 	cmpl   $0x0,0x202777(%rip)        # 60450c <is_checker>
  401d95:	74 16                	je     401dad <sigalrmhandler+0x23>
  401d97:	48 8d 3d 1b 14 00 00 	lea    0x141b(%rip),%rdi        # 4031b9 <_IO_stdin_used+0x469>
  401d9e:	e8 1d ef ff ff       	callq  400cc0 <puts@plt>
  401da3:	b8 00 00 00 00       	mov    $0x0,%eax
  401da8:	e8 68 fc ff ff       	callq  401a15 <check_fail>
  401dad:	ba 05 00 00 00       	mov    $0x5,%edx
  401db2:	48 8d 35 37 15 00 00 	lea    0x1537(%rip),%rsi        # 4032f0 <_IO_stdin_used+0x5a0>
  401db9:	bf 01 00 00 00       	mov    $0x1,%edi
  401dbe:	b8 00 00 00 00       	mov    $0x0,%eax
  401dc3:	e8 18 f0 ff ff       	callq  400de0 <__printf_chk@plt>
  401dc8:	be 00 00 00 00       	mov    $0x0,%esi
  401dcd:	bf 00 00 00 00       	mov    $0x0,%edi
  401dd2:	e8 c8 fc ff ff       	callq  401a9f <notify_server>
  401dd7:	bf 01 00 00 00       	mov    $0x1,%edi
  401ddc:	e8 4f f0 ff ff       	callq  400e30 <exit@plt>

0000000000401de1 <launch>:
  401de1:	55                   	push   %rbp
  401de2:	48 89 e5             	mov    %rsp,%rbp
  401de5:	48 83 ec 10          	sub    $0x10,%rsp
  401de9:	48 89 fa             	mov    %rdi,%rdx
  401dec:	64 48 8b 04 25 28 00 	mov    %fs:0x28,%rax
  401df3:	00 00 
  401df5:	48 89 45 f8          	mov    %rax,-0x8(%rbp)
  401df9:	31 c0                	xor    %eax,%eax
  401dfb:	48 8d 47 1e          	lea    0x1e(%rdi),%rax
  401dff:	48 83 e0 f0          	and    $0xfffffffffffffff0,%rax
  401e03:	48 29 c4             	sub    %rax,%rsp
  401e06:	48 8d 7c 24 0f       	lea    0xf(%rsp),%rdi
  401e0b:	48 83 e7 f0          	and    $0xfffffffffffffff0,%rdi
  401e0f:	be f4 00 00 00       	mov    $0xf4,%esi
  401e14:	e8 e7 ee ff ff       	callq  400d00 <memset@plt>
  401e19:	48 8b 05 80 26 20 00 	mov    0x202680(%rip),%rax        # 6044a0 <stdin@@GLIBC_2.2.5>
  401e20:	48 39 05 c9 26 20 00 	cmp    %rax,0x2026c9(%rip)        # 6044f0 <infile>
  401e27:	74 3a                	je     401e63 <launch+0x82>
  401e29:	c7 05 cd 26 20 00 00 	movl   $0x0,0x2026cd(%rip)        # 604500 <vlevel>
  401e30:	00 00 00 
  401e33:	b8 00 00 00 00       	mov    $0x0,%eax
  401e38:	e8 3d fb ff ff       	callq  40197a <test>
  401e3d:	83 3d c8 26 20 00 00 	cmpl   $0x0,0x2026c8(%rip)        # 60450c <is_checker>
  401e44:	75 35                	jne    401e7b <launch+0x9a>
  401e46:	48 8d 3d 8c 13 00 00 	lea    0x138c(%rip),%rdi        # 4031d9 <_IO_stdin_used+0x489>
  401e4d:	e8 6e ee ff ff       	callq  400cc0 <puts@plt>
  401e52:	48 8b 45 f8          	mov    -0x8(%rbp),%rax
  401e56:	64 48 33 04 25 28 00 	xor    %fs:0x28,%rax
  401e5d:	00 00 
  401e5f:	75 30                	jne    401e91 <launch+0xb0>
  401e61:	c9                   	leaveq 
  401e62:	c3                   	retq   
  401e63:	48 8d 35 57 13 00 00 	lea    0x1357(%rip),%rsi        # 4031c1 <_IO_stdin_used+0x471>
  401e6a:	bf 01 00 00 00       	mov    $0x1,%edi
  401e6f:	b8 00 00 00 00       	mov    $0x0,%eax
  401e74:	e8 67 ef ff ff       	callq  400de0 <__printf_chk@plt>
  401e79:	eb ae                	jmp    401e29 <launch+0x48>
  401e7b:	48 8d 3d 4c 13 00 00 	lea    0x134c(%rip),%rdi        # 4031ce <_IO_stdin_used+0x47e>
  401e82:	e8 39 ee ff ff       	callq  400cc0 <puts@plt>
  401e87:	b8 00 00 00 00       	mov    $0x0,%eax
  401e8c:	e8 84 fb ff ff       	callq  401a15 <check_fail>
  401e91:	e8 4a ee ff ff       	callq  400ce0 <__stack_chk_fail@plt>

0000000000401e96 <stable_launch>:
  401e96:	53                   	push   %rbx
  401e97:	48 89 3d 4a 26 20 00 	mov    %rdi,0x20264a(%rip)        # 6044e8 <global_offset>
  401e9e:	41 b9 00 00 00 00    	mov    $0x0,%r9d
  401ea4:	41 b8 00 00 00 00    	mov    $0x0,%r8d
  401eaa:	b9 32 01 00 00       	mov    $0x132,%ecx
  401eaf:	ba 07 00 00 00       	mov    $0x7,%edx
  401eb4:	be 00 00 10 00       	mov    $0x100000,%esi
  401eb9:	bf 00 60 58 55       	mov    $0x55586000,%edi
  401ebe:	e8 2d ee ff ff       	callq  400cf0 <mmap@plt>
  401ec3:	48 89 c3             	mov    %rax,%rbx
  401ec6:	48 3d 00 60 58 55    	cmp    $0x55586000,%rax
  401ecc:	75 43                	jne    401f11 <stable_launch+0x7b>
  401ece:	48 8d 90 f8 ff 0f 00 	lea    0xffff8(%rax),%rdx
  401ed5:	48 89 15 54 32 20 00 	mov    %rdx,0x203254(%rip)        # 605130 <stack_top>
  401edc:	48 89 e0             	mov    %rsp,%rax
  401edf:	48 89 d4             	mov    %rdx,%rsp
  401ee2:	48 89 c2             	mov    %rax,%rdx
  401ee5:	48 89 15 f4 25 20 00 	mov    %rdx,0x2025f4(%rip)        # 6044e0 <global_save_stack>
  401eec:	48 8b 3d f5 25 20 00 	mov    0x2025f5(%rip),%rdi        # 6044e8 <global_offset>
  401ef3:	e8 e9 fe ff ff       	callq  401de1 <launch>
  401ef8:	48 8b 05 e1 25 20 00 	mov    0x2025e1(%rip),%rax        # 6044e0 <global_save_stack>
  401eff:	48 89 c4             	mov    %rax,%rsp
  401f02:	be 00 00 10 00       	mov    $0x100000,%esi
  401f07:	48 89 df             	mov    %rbx,%rdi
  401f0a:	e8 c1 ee ff ff       	callq  400dd0 <munmap@plt>
  401f0f:	5b                   	pop    %rbx
  401f10:	c3                   	retq   
  401f11:	be 00 00 10 00       	mov    $0x100000,%esi
  401f16:	48 89 c7             	mov    %rax,%rdi
  401f19:	e8 b2 ee ff ff       	callq  400dd0 <munmap@plt>
  401f1e:	b9 00 60 58 55       	mov    $0x55586000,%ecx
  401f23:	48 8d 15 fe 13 00 00 	lea    0x13fe(%rip),%rdx        # 403328 <_IO_stdin_used+0x5d8>
  401f2a:	be 01 00 00 00       	mov    $0x1,%esi
  401f2f:	48 8b 3d 8a 25 20 00 	mov    0x20258a(%rip),%rdi        # 6044c0 <stderr@@GLIBC_2.2.5>
  401f36:	b8 00 00 00 00       	mov    $0x0,%eax
  401f3b:	e8 10 ef ff ff       	callq  400e50 <__fprintf_chk@plt>
  401f40:	bf 01 00 00 00       	mov    $0x1,%edi
  401f45:	e8 e6 ee ff ff       	callq  400e30 <exit@plt>

0000000000401f4a <rio_readinitb>:
  401f4a:	89 37                	mov    %esi,(%rdi)
  401f4c:	c7 47 04 00 00 00 00 	movl   $0x0,0x4(%rdi)
  401f53:	48 8d 47 10          	lea    0x10(%rdi),%rax
  401f57:	48 89 47 08          	mov    %rax,0x8(%rdi)
  401f5b:	c3                   	retq   

0000000000401f5c <sigalrm_handler>:
  401f5c:	48 83 ec 08          	sub    $0x8,%rsp
  401f60:	b9 00 00 00 00       	mov    $0x0,%ecx
  401f65:	48 8d 15 f4 13 00 00 	lea    0x13f4(%rip),%rdx        # 403360 <trans_char+0x10>
  401f6c:	be 01 00 00 00       	mov    $0x1,%esi
  401f71:	48 8b 3d 48 25 20 00 	mov    0x202548(%rip),%rdi        # 6044c0 <stderr@@GLIBC_2.2.5>
  401f78:	b8 00 00 00 00       	mov    $0x0,%eax
  401f7d:	e8 ce ee ff ff       	callq  400e50 <__fprintf_chk@plt>
  401f82:	bf 01 00 00 00       	mov    $0x1,%edi
  401f87:	e8 a4 ee ff ff       	callq  400e30 <exit@plt>

0000000000401f8c <rio_writen>:
  401f8c:	41 55                	push   %r13
  401f8e:	41 54                	push   %r12
  401f90:	55                   	push   %rbp
  401f91:	53                   	push   %rbx
  401f92:	48 83 ec 08          	sub    $0x8,%rsp
  401f96:	41 89 fc             	mov    %edi,%r12d
  401f99:	48 89 f5             	mov    %rsi,%rbp
  401f9c:	49 89 d5             	mov    %rdx,%r13
  401f9f:	48 89 d3             	mov    %rdx,%rbx
  401fa2:	eb 06                	jmp    401faa <rio_writen+0x1e>
  401fa4:	48 29 c3             	sub    %rax,%rbx
  401fa7:	48 01 c5             	add    %rax,%rbp
  401faa:	48 85 db             	test   %rbx,%rbx
  401fad:	74 24                	je     401fd3 <rio_writen+0x47>
  401faf:	48 89 da             	mov    %rbx,%rdx
  401fb2:	48 89 ee             	mov    %rbp,%rsi
  401fb5:	44 89 e7             	mov    %r12d,%edi
  401fb8:	e8 13 ed ff ff       	callq  400cd0 <write@plt>
  401fbd:	48 85 c0             	test   %rax,%rax
  401fc0:	7f e2                	jg     401fa4 <rio_writen+0x18>
  401fc2:	e8 b9 ec ff ff       	callq  400c80 <__errno_location@plt>
  401fc7:	83 38 04             	cmpl   $0x4,(%rax)
  401fca:	75 15                	jne    401fe1 <rio_writen+0x55>
  401fcc:	b8 00 00 00 00       	mov    $0x0,%eax
  401fd1:	eb d1                	jmp    401fa4 <rio_writen+0x18>
  401fd3:	4c 89 e8             	mov    %r13,%rax
  401fd6:	48 83 c4 08          	add    $0x8,%rsp
  401fda:	5b                   	pop    %rbx
  401fdb:	5d                   	pop    %rbp
  401fdc:	41 5c                	pop    %r12
  401fde:	41 5d                	pop    %r13
  401fe0:	c3                   	retq   
  401fe1:	48 c7 c0 ff ff ff ff 	mov    $0xffffffffffffffff,%rax
  401fe8:	eb ec                	jmp    401fd6 <rio_writen+0x4a>

0000000000401fea <rio_read>:
  401fea:	41 55                	push   %r13
  401fec:	41 54                	push   %r12
  401fee:	55                   	push   %rbp
  401fef:	53                   	push   %rbx
  401ff0:	48 83 ec 08          	sub    $0x8,%rsp
  401ff4:	48 89 fb             	mov    %rdi,%rbx
  401ff7:	49 89 f5             	mov    %rsi,%r13
  401ffa:	49 89 d4             	mov    %rdx,%r12
  401ffd:	eb 0a                	jmp    402009 <rio_read+0x1f>
  401fff:	e8 7c ec ff ff       	callq  400c80 <__errno_location@plt>
  402004:	83 38 04             	cmpl   $0x4,(%rax)
  402007:	75 5c                	jne    402065 <rio_read+0x7b>
  402009:	8b 6b 04             	mov    0x4(%rbx),%ebp
  40200c:	85 ed                	test   %ebp,%ebp
  40200e:	7f 24                	jg     402034 <rio_read+0x4a>
  402010:	48 8d 6b 10          	lea    0x10(%rbx),%rbp
  402014:	8b 3b                	mov    (%rbx),%edi
  402016:	ba 00 20 00 00       	mov    $0x2000,%edx
  40201b:	48 89 ee             	mov    %rbp,%rsi
  40201e:	e8 0d ed ff ff       	callq  400d30 <read@plt>
  402023:	89 43 04             	mov    %eax,0x4(%rbx)
  402026:	85 c0                	test   %eax,%eax
  402028:	78 d5                	js     401fff <rio_read+0x15>
  40202a:	85 c0                	test   %eax,%eax
  40202c:	74 40                	je     40206e <rio_read+0x84>
  40202e:	48 89 6b 08          	mov    %rbp,0x8(%rbx)
  402032:	eb d5                	jmp    402009 <rio_read+0x1f>
  402034:	89 e8                	mov    %ebp,%eax
  402036:	4c 39 e0             	cmp    %r12,%rax
  402039:	72 03                	jb     40203e <rio_read+0x54>
  40203b:	44 89 e5             	mov    %r12d,%ebp
  40203e:	4c 63 e5             	movslq %ebp,%r12
  402041:	48 8b 73 08          	mov    0x8(%rbx),%rsi
  402045:	4c 89 e2             	mov    %r12,%rdx
  402048:	4c 89 ef             	mov    %r13,%rdi
  40204b:	e8 30 ed ff ff       	callq  400d80 <memcpy@plt>
  402050:	4c 01 63 08          	add    %r12,0x8(%rbx)
  402054:	29 6b 04             	sub    %ebp,0x4(%rbx)
  402057:	4c 89 e0             	mov    %r12,%rax
  40205a:	48 83 c4 08          	add    $0x8,%rsp
  40205e:	5b                   	pop    %rbx
  40205f:	5d                   	pop    %rbp
  402060:	41 5c                	pop    %r12
  402062:	41 5d                	pop    %r13
  402064:	c3                   	retq   
  402065:	48 c7 c0 ff ff ff ff 	mov    $0xffffffffffffffff,%rax
  40206c:	eb ec                	jmp    40205a <rio_read+0x70>
  40206e:	b8 00 00 00 00       	mov    $0x0,%eax
  402073:	eb e5                	jmp    40205a <rio_read+0x70>

0000000000402075 <rio_readlineb>:
  402075:	41 55                	push   %r13
  402077:	41 54                	push   %r12
  402079:	55                   	push   %rbp
  40207a:	53                   	push   %rbx
  40207b:	48 83 ec 18          	sub    $0x18,%rsp
  40207f:	49 89 fd             	mov    %rdi,%r13
  402082:	48 89 f5             	mov    %rsi,%rbp
  402085:	49 89 d4             	mov    %rdx,%r12
  402088:	64 48 8b 04 25 28 00 	mov    %fs:0x28,%rax
  40208f:	00 00 
  402091:	48 89 44 24 08       	mov    %rax,0x8(%rsp)
  402096:	31 c0                	xor    %eax,%eax
  402098:	bb 01 00 00 00       	mov    $0x1,%ebx
  40209d:	4c 39 e3             	cmp    %r12,%rbx
  4020a0:	73 47                	jae    4020e9 <rio_readlineb+0x74>
  4020a2:	48 8d 74 24 07       	lea    0x7(%rsp),%rsi
  4020a7:	ba 01 00 00 00       	mov    $0x1,%edx
  4020ac:	4c 89 ef             	mov    %r13,%rdi
  4020af:	e8 36 ff ff ff       	callq  401fea <rio_read>
  4020b4:	83 f8 01             	cmp    $0x1,%eax
  4020b7:	75 1c                	jne    4020d5 <rio_readlineb+0x60>
  4020b9:	48 8d 45 01          	lea    0x1(%rbp),%rax
  4020bd:	0f b6 54 24 07       	movzbl 0x7(%rsp),%edx
  4020c2:	88 55 00             	mov    %dl,0x0(%rbp)
  4020c5:	80 7c 24 07 0a       	cmpb   $0xa,0x7(%rsp)
  4020ca:	74 1a                	je     4020e6 <rio_readlineb+0x71>
  4020cc:	48 83 c3 01          	add    $0x1,%rbx
  4020d0:	48 89 c5             	mov    %rax,%rbp
  4020d3:	eb c8                	jmp    40209d <rio_readlineb+0x28>
  4020d5:	85 c0                	test   %eax,%eax
  4020d7:	75 32                	jne    40210b <rio_readlineb+0x96>
  4020d9:	48 83 fb 01          	cmp    $0x1,%rbx
  4020dd:	75 0a                	jne    4020e9 <rio_readlineb+0x74>
  4020df:	b8 00 00 00 00       	mov    $0x0,%eax
  4020e4:	eb 0a                	jmp    4020f0 <rio_readlineb+0x7b>
  4020e6:	48 89 c5             	mov    %rax,%rbp
  4020e9:	c6 45 00 00          	movb   $0x0,0x0(%rbp)
  4020ed:	48 89 d8             	mov    %rbx,%rax
  4020f0:	48 8b 4c 24 08       	mov    0x8(%rsp),%rcx
  4020f5:	64 48 33 0c 25 28 00 	xor    %fs:0x28,%rcx
  4020fc:	00 00 
  4020fe:	75 14                	jne    402114 <rio_readlineb+0x9f>
  402100:	48 83 c4 18          	add    $0x18,%rsp
  402104:	5b                   	pop    %rbx
  402105:	5d                   	pop    %rbp
  402106:	41 5c                	pop    %r12
  402108:	41 5d                	pop    %r13
  40210a:	c3                   	retq   
  40210b:	48 c7 c0 ff ff ff ff 	mov    $0xffffffffffffffff,%rax
  402112:	eb dc                	jmp    4020f0 <rio_readlineb+0x7b>
  402114:	e8 c7 eb ff ff       	callq  400ce0 <__stack_chk_fail@plt>

0000000000402119 <urlencode>:
  402119:	41 54                	push   %r12
  40211b:	55                   	push   %rbp
  40211c:	53                   	push   %rbx
  40211d:	48 83 ec 10          	sub    $0x10,%rsp
  402121:	48 89 fb             	mov    %rdi,%rbx
  402124:	48 89 f5             	mov    %rsi,%rbp
  402127:	64 48 8b 04 25 28 00 	mov    %fs:0x28,%rax
  40212e:	00 00 
  402130:	48 89 44 24 08       	mov    %rax,0x8(%rsp)
  402135:	31 c0                	xor    %eax,%eax
  402137:	48 c7 c1 ff ff ff ff 	mov    $0xffffffffffffffff,%rcx
  40213e:	f2 ae                	repnz scas %es:(%rdi),%al
  402140:	48 89 ce             	mov    %rcx,%rsi
  402143:	48 f7 d6             	not    %rsi
  402146:	8d 46 ff             	lea    -0x1(%rsi),%eax
  402149:	eb 0f                	jmp    40215a <urlencode+0x41>
  40214b:	44 88 45 00          	mov    %r8b,0x0(%rbp)
  40214f:	48 8d 6d 01          	lea    0x1(%rbp),%rbp
  402153:	48 83 c3 01          	add    $0x1,%rbx
  402157:	44 89 e0             	mov    %r12d,%eax
  40215a:	44 8d 60 ff          	lea    -0x1(%rax),%r12d
  40215e:	85 c0                	test   %eax,%eax
  402160:	0f 84 a8 00 00 00    	je     40220e <urlencode+0xf5>
  402166:	44 0f b6 03          	movzbl (%rbx),%r8d
  40216a:	41 80 f8 2a          	cmp    $0x2a,%r8b
  40216e:	0f 94 c2             	sete   %dl
  402171:	41 80 f8 2d          	cmp    $0x2d,%r8b
  402175:	0f 94 c0             	sete   %al
  402178:	08 c2                	or     %al,%dl
  40217a:	75 cf                	jne    40214b <urlencode+0x32>
  40217c:	41 80 f8 2e          	cmp    $0x2e,%r8b
  402180:	74 c9                	je     40214b <urlencode+0x32>
  402182:	41 80 f8 5f          	cmp    $0x5f,%r8b
  402186:	74 c3                	je     40214b <urlencode+0x32>
  402188:	41 8d 40 d0          	lea    -0x30(%r8),%eax
  40218c:	3c 09                	cmp    $0x9,%al
  40218e:	76 bb                	jbe    40214b <urlencode+0x32>
  402190:	41 8d 40 bf          	lea    -0x41(%r8),%eax
  402194:	3c 19                	cmp    $0x19,%al
  402196:	76 b3                	jbe    40214b <urlencode+0x32>
  402198:	41 8d 40 9f          	lea    -0x61(%r8),%eax
  40219c:	3c 19                	cmp    $0x19,%al
  40219e:	76 ab                	jbe    40214b <urlencode+0x32>
  4021a0:	41 80 f8 20          	cmp    $0x20,%r8b
  4021a4:	74 56                	je     4021fc <urlencode+0xe3>
  4021a6:	41 8d 40 e0          	lea    -0x20(%r8),%eax
  4021aa:	3c 5f                	cmp    $0x5f,%al
  4021ac:	0f 96 c2             	setbe  %dl
  4021af:	41 80 f8 09          	cmp    $0x9,%r8b
  4021b3:	0f 94 c0             	sete   %al
  4021b6:	08 c2                	or     %al,%dl
  4021b8:	74 4f                	je     402209 <urlencode+0xf0>
  4021ba:	48 89 e7             	mov    %rsp,%rdi
  4021bd:	45 0f b6 c0          	movzbl %r8b,%r8d
  4021c1:	48 8d 0d 30 12 00 00 	lea    0x1230(%rip),%rcx        # 4033f8 <trans_char+0xa8>
  4021c8:	ba 08 00 00 00       	mov    $0x8,%edx
  4021cd:	be 01 00 00 00       	mov    $0x1,%esi
  4021d2:	b8 00 00 00 00       	mov    $0x0,%eax
  4021d7:	e8 84 ec ff ff       	callq  400e60 <__sprintf_chk@plt>
  4021dc:	0f b6 04 24          	movzbl (%rsp),%eax
  4021e0:	88 45 00             	mov    %al,0x0(%rbp)
  4021e3:	0f b6 44 24 01       	movzbl 0x1(%rsp),%eax
  4021e8:	88 45 01             	mov    %al,0x1(%rbp)
  4021eb:	0f b6 44 24 02       	movzbl 0x2(%rsp),%eax
  4021f0:	88 45 02             	mov    %al,0x2(%rbp)
  4021f3:	48 8d 6d 03          	lea    0x3(%rbp),%rbp
  4021f7:	e9 57 ff ff ff       	jmpq   402153 <urlencode+0x3a>
  4021fc:	c6 45 00 2b          	movb   $0x2b,0x0(%rbp)
  402200:	48 8d 6d 01          	lea    0x1(%rbp),%rbp
  402204:	e9 4a ff ff ff       	jmpq   402153 <urlencode+0x3a>
  402209:	b8 ff ff ff ff       	mov    $0xffffffff,%eax
  40220e:	48 8b 74 24 08       	mov    0x8(%rsp),%rsi
  402213:	64 48 33 34 25 28 00 	xor    %fs:0x28,%rsi
  40221a:	00 00 
  40221c:	75 09                	jne    402227 <urlencode+0x10e>
  40221e:	48 83 c4 10          	add    $0x10,%rsp
  402222:	5b                   	pop    %rbx
  402223:	5d                   	pop    %rbp
  402224:	41 5c                	pop    %r12
  402226:	c3                   	retq   
  402227:	e8 b4 ea ff ff       	callq  400ce0 <__stack_chk_fail@plt>

000000000040222c <submitr>:
  40222c:	41 57                	push   %r15
  40222e:	41 56                	push   %r14
  402230:	41 55                	push   %r13
  402232:	41 54                	push   %r12
  402234:	55                   	push   %rbp
  402235:	53                   	push   %rbx
  402236:	48 81 ec 68 a0 00 00 	sub    $0xa068,%rsp
  40223d:	49 89 fd             	mov    %rdi,%r13
  402240:	89 74 24 14          	mov    %esi,0x14(%rsp)
  402244:	49 89 d7             	mov    %rdx,%r15
  402247:	48 89 4c 24 08       	mov    %rcx,0x8(%rsp)
  40224c:	4c 89 44 24 18       	mov    %r8,0x18(%rsp)
  402251:	4d 89 ce             	mov    %r9,%r14
  402254:	48 8b ac 24 a0 a0 00 	mov    0xa0a0(%rsp),%rbp
  40225b:	00 
  40225c:	64 48 8b 04 25 28 00 	mov    %fs:0x28,%rax
  402263:	00 00 
  402265:	48 89 84 24 58 a0 00 	mov    %rax,0xa058(%rsp)
  40226c:	00 
  40226d:	31 c0                	xor    %eax,%eax
  40226f:	c7 44 24 2c 00 00 00 	movl   $0x0,0x2c(%rsp)
  402276:	00 
  402277:	ba 00 00 00 00       	mov    $0x0,%edx
  40227c:	be 01 00 00 00       	mov    $0x1,%esi
  402281:	bf 02 00 00 00       	mov    $0x2,%edi
  402286:	e8 e5 eb ff ff       	callq  400e70 <socket@plt>
  40228b:	85 c0                	test   %eax,%eax
  40228d:	0f 88 a9 02 00 00    	js     40253c <submitr+0x310>
  402293:	89 c3                	mov    %eax,%ebx
  402295:	4c 89 ef             	mov    %r13,%rdi
  402298:	e8 b3 ea ff ff       	callq  400d50 <gethostbyname@plt>
  40229d:	48 85 c0             	test   %rax,%rax
  4022a0:	0f 84 e2 02 00 00    	je     402588 <submitr+0x35c>
  4022a6:	4c 8d 64 24 30       	lea    0x30(%rsp),%r12
  4022ab:	48 c7 44 24 32 00 00 	movq   $0x0,0x32(%rsp)
  4022b2:	00 00 
  4022b4:	c7 44 24 3a 00 00 00 	movl   $0x0,0x3a(%rsp)
  4022bb:	00 
  4022bc:	66 c7 44 24 3e 00 00 	movw   $0x0,0x3e(%rsp)
  4022c3:	66 c7 44 24 30 02 00 	movw   $0x2,0x30(%rsp)
  4022ca:	48 63 50 14          	movslq 0x14(%rax),%rdx
  4022ce:	48 8b 40 18          	mov    0x18(%rax),%rax
  4022d2:	48 8b 30             	mov    (%rax),%rsi
  4022d5:	48 8d 7c 24 34       	lea    0x34(%rsp),%rdi
  4022da:	b9 0c 00 00 00       	mov    $0xc,%ecx
  4022df:	e8 7c ea ff ff       	callq  400d60 <__memmove_chk@plt>
  4022e4:	0f b7 44 24 14       	movzwl 0x14(%rsp),%eax
  4022e9:	66 c1 c8 08          	ror    $0x8,%ax
  4022ed:	66 89 44 24 32       	mov    %ax,0x32(%rsp)
  4022f2:	ba 10 00 00 00       	mov    $0x10,%edx
  4022f7:	4c 89 e6             	mov    %r12,%rsi
  4022fa:	89 df                	mov    %ebx,%edi
  4022fc:	e8 3f eb ff ff       	callq  400e40 <connect@plt>
  402301:	85 c0                	test   %eax,%eax
  402303:	0f 88 e7 02 00 00    	js     4025f0 <submitr+0x3c4>
  402309:	48 c7 c6 ff ff ff ff 	mov    $0xffffffffffffffff,%rsi
  402310:	b8 00 00 00 00       	mov    $0x0,%eax
  402315:	48 89 f1             	mov    %rsi,%rcx
  402318:	4c 89 f7             	mov    %r14,%rdi
  40231b:	f2 ae                	repnz scas %es:(%rdi),%al
  40231d:	48 89 ca             	mov    %rcx,%rdx
  402320:	48 f7 d2             	not    %rdx
  402323:	48 89 f1             	mov    %rsi,%rcx
  402326:	4c 89 ff             	mov    %r15,%rdi
  402329:	f2 ae                	repnz scas %es:(%rdi),%al
  40232b:	48 f7 d1             	not    %rcx
  40232e:	49 89 c8             	mov    %rcx,%r8
  402331:	48 89 f1             	mov    %rsi,%rcx
  402334:	48 8b 7c 24 08       	mov    0x8(%rsp),%rdi
  402339:	f2 ae                	repnz scas %es:(%rdi),%al
  40233b:	48 f7 d1             	not    %rcx
  40233e:	4d 8d 44 08 fe       	lea    -0x2(%r8,%rcx,1),%r8
  402343:	48 89 f1             	mov    %rsi,%rcx
  402346:	48 8b 7c 24 18       	mov    0x18(%rsp),%rdi
  40234b:	f2 ae                	repnz scas %es:(%rdi),%al
  40234d:	48 89 c8             	mov    %rcx,%rax
  402350:	48 f7 d0             	not    %rax
  402353:	49 8d 4c 00 ff       	lea    -0x1(%r8,%rax,1),%rcx
  402358:	48 8d 44 52 fd       	lea    -0x3(%rdx,%rdx,2),%rax
  40235d:	48 8d 84 01 80 00 00 	lea    0x80(%rcx,%rax,1),%rax
  402364:	00 
  402365:	48 3d 00 20 00 00    	cmp    $0x2000,%rax
  40236b:	0f 87 d9 02 00 00    	ja     40264a <submitr+0x41e>
  402371:	48 8d b4 24 50 40 00 	lea    0x4050(%rsp),%rsi
  402378:	00 
  402379:	b9 00 04 00 00       	mov    $0x400,%ecx
  40237e:	b8 00 00 00 00       	mov    $0x0,%eax
  402383:	48 89 f7             	mov    %rsi,%rdi
  402386:	f3 48 ab             	rep stos %rax,%es:(%rdi)
  402389:	4c 89 f7             	mov    %r14,%rdi
  40238c:	e8 88 fd ff ff       	callq  402119 <urlencode>
  402391:	85 c0                	test   %eax,%eax
  402393:	0f 88 24 03 00 00    	js     4026bd <submitr+0x491>
  402399:	4c 8d a4 24 50 20 00 	lea    0x2050(%rsp),%r12
  4023a0:	00 
  4023a1:	41 55                	push   %r13
  4023a3:	48 8d 84 24 58 40 00 	lea    0x4058(%rsp),%rax
  4023aa:	00 
  4023ab:	50                   	push   %rax
  4023ac:	4d 89 f9             	mov    %r15,%r9
  4023af:	4c 8b 44 24 18       	mov    0x18(%rsp),%r8
  4023b4:	48 8d 0d cd 0f 00 00 	lea    0xfcd(%rip),%rcx        # 403388 <trans_char+0x38>
  4023bb:	ba 00 20 00 00       	mov    $0x2000,%edx
  4023c0:	be 01 00 00 00       	mov    $0x1,%esi
  4023c5:	4c 89 e7             	mov    %r12,%rdi
  4023c8:	b8 00 00 00 00       	mov    $0x0,%eax
  4023cd:	e8 8e ea ff ff       	callq  400e60 <__sprintf_chk@plt>
  4023d2:	48 c7 c1 ff ff ff ff 	mov    $0xffffffffffffffff,%rcx
  4023d9:	b8 00 00 00 00       	mov    $0x0,%eax
  4023de:	4c 89 e7             	mov    %r12,%rdi
  4023e1:	f2 ae                	repnz scas %es:(%rdi),%al
  4023e3:	48 89 ca             	mov    %rcx,%rdx
  4023e6:	48 f7 d2             	not    %rdx
  4023e9:	48 8d 52 ff          	lea    -0x1(%rdx),%rdx
  4023ed:	4c 89 e6             	mov    %r12,%rsi
  4023f0:	89 df                	mov    %ebx,%edi
  4023f2:	e8 95 fb ff ff       	callq  401f8c <rio_writen>
  4023f7:	48 83 c4 10          	add    $0x10,%rsp
  4023fb:	48 85 c0             	test   %rax,%rax
  4023fe:	0f 88 44 03 00 00    	js     402748 <submitr+0x51c>
  402404:	4c 8d 64 24 40       	lea    0x40(%rsp),%r12
  402409:	89 de                	mov    %ebx,%esi
  40240b:	4c 89 e7             	mov    %r12,%rdi
  40240e:	e8 37 fb ff ff       	callq  401f4a <rio_readinitb>
  402413:	48 8d b4 24 50 20 00 	lea    0x2050(%rsp),%rsi
  40241a:	00 
  40241b:	ba 00 20 00 00       	mov    $0x2000,%edx
  402420:	4c 89 e7             	mov    %r12,%rdi
  402423:	e8 4d fc ff ff       	callq  402075 <rio_readlineb>
  402428:	48 85 c0             	test   %rax,%rax
  40242b:	0f 8e 86 03 00 00    	jle    4027b7 <submitr+0x58b>
  402431:	48 8d 4c 24 2c       	lea    0x2c(%rsp),%rcx
  402436:	48 8d 94 24 50 60 00 	lea    0x6050(%rsp),%rdx
  40243d:	00 
  40243e:	48 8d bc 24 50 20 00 	lea    0x2050(%rsp),%rdi
  402445:	00 
  402446:	4c 8d 84 24 50 80 00 	lea    0x8050(%rsp),%r8
  40244d:	00 
  40244e:	48 8d 35 aa 0f 00 00 	lea    0xfaa(%rip),%rsi        # 4033ff <trans_char+0xaf>
  402455:	b8 00 00 00 00       	mov    $0x0,%eax
  40245a:	e8 61 e9 ff ff       	callq  400dc0 <__isoc99_sscanf@plt>
  40245f:	48 8d b4 24 50 20 00 	lea    0x2050(%rsp),%rsi
  402466:	00 
  402467:	b9 03 00 00 00       	mov    $0x3,%ecx
  40246c:	48 8d 3d a3 0f 00 00 	lea    0xfa3(%rip),%rdi        # 403416 <trans_char+0xc6>
  402473:	f3 a6                	repz cmpsb %es:(%rdi),%ds:(%rsi)
  402475:	0f 97 c0             	seta   %al
  402478:	1c 00                	sbb    $0x0,%al
  40247a:	84 c0                	test   %al,%al
  40247c:	0f 84 b3 03 00 00    	je     402835 <submitr+0x609>
  402482:	48 8d b4 24 50 20 00 	lea    0x2050(%rsp),%rsi
  402489:	00 
  40248a:	48 8d 7c 24 40       	lea    0x40(%rsp),%rdi
  40248f:	ba 00 20 00 00       	mov    $0x2000,%edx
  402494:	e8 dc fb ff ff       	callq  402075 <rio_readlineb>
  402499:	48 85 c0             	test   %rax,%rax
  40249c:	7f c1                	jg     40245f <submitr+0x233>
  40249e:	48 b8 45 72 72 6f 72 	movabs $0x43203a726f727245,%rax
  4024a5:	3a 20 43 
  4024a8:	48 ba 6c 69 65 6e 74 	movabs $0x6e7520746e65696c,%rdx
  4024af:	20 75 6e 
  4024b2:	48 89 45 00          	mov    %rax,0x0(%rbp)
  4024b6:	48 89 55 08          	mov    %rdx,0x8(%rbp)
  4024ba:	48 b8 61 62 6c 65 20 	movabs $0x206f7420656c6261,%rax
  4024c1:	74 6f 20 
  4024c4:	48 ba 72 65 61 64 20 	movabs $0x6165682064616572,%rdx
  4024cb:	68 65 61 
  4024ce:	48 89 45 10          	mov    %rax,0x10(%rbp)
  4024d2:	48 89 55 18          	mov    %rdx,0x18(%rbp)
  4024d6:	48 b8 64 65 72 73 20 	movabs $0x6f72662073726564,%rax
  4024dd:	66 72 6f 
  4024e0:	48 ba 6d 20 74 68 65 	movabs $0x657220656874206d,%rdx
  4024e7:	20 72 65 
  4024ea:	48 89 45 20          	mov    %rax,0x20(%rbp)
  4024ee:	48 89 55 28          	mov    %rdx,0x28(%rbp)
  4024f2:	48 b8 73 75 6c 74 20 	movabs $0x72657320746c7573,%rax
  4024f9:	73 65 72 
  4024fc:	48 89 45 30          	mov    %rax,0x30(%rbp)
  402500:	c7 45 38 76 65 72 00 	movl   $0x726576,0x38(%rbp)
  402507:	89 df                	mov    %ebx,%edi
  402509:	e8 12 e8 ff ff       	callq  400d20 <close@plt>
  40250e:	b8 ff ff ff ff       	mov    $0xffffffff,%eax
  402513:	48 8b 9c 24 58 a0 00 	mov    0xa058(%rsp),%rbx
  40251a:	00 
  40251b:	64 48 33 1c 25 28 00 	xor    %fs:0x28,%rbx
  402522:	00 00 
  402524:	0f 85 7e 04 00 00    	jne    4029a8 <submitr+0x77c>
  40252a:	48 81 c4 68 a0 00 00 	add    $0xa068,%rsp
  402531:	5b                   	pop    %rbx
  402532:	5d                   	pop    %rbp
  402533:	41 5c                	pop    %r12
  402535:	41 5d                	pop    %r13
  402537:	41 5e                	pop    %r14
  402539:	41 5f                	pop    %r15
  40253b:	c3                   	retq   
  40253c:	48 b8 45 72 72 6f 72 	movabs $0x43203a726f727245,%rax
  402543:	3a 20 43 
  402546:	48 ba 6c 69 65 6e 74 	movabs $0x6e7520746e65696c,%rdx
  40254d:	20 75 6e 
  402550:	48 89 45 00          	mov    %rax,0x0(%rbp)
  402554:	48 89 55 08          	mov    %rdx,0x8(%rbp)
  402558:	48 b8 61 62 6c 65 20 	movabs $0x206f7420656c6261,%rax
  40255f:	74 6f 20 
  402562:	48 ba 63 72 65 61 74 	movabs $0x7320657461657263,%rdx
  402569:	65 20 73 
  40256c:	48 89 45 10          	mov    %rax,0x10(%rbp)
  402570:	48 89 55 18          	mov    %rdx,0x18(%rbp)
  402574:	c7 45 20 6f 63 6b 65 	movl   $0x656b636f,0x20(%rbp)
  40257b:	66 c7 45 24 74 00    	movw   $0x74,0x24(%rbp)
  402581:	b8 ff ff ff ff       	mov    $0xffffffff,%eax
  402586:	eb 8b                	jmp    402513 <submitr+0x2e7>
  402588:	48 b8 45 72 72 6f 72 	movabs $0x44203a726f727245,%rax
  40258f:	3a 20 44 
  402592:	48 ba 4e 53 20 69 73 	movabs $0x6e7520736920534e,%rdx
  402599:	20 75 6e 
  40259c:	48 89 45 00          	mov    %rax,0x0(%rbp)
  4025a0:	48 89 55 08          	mov    %rdx,0x8(%rbp)
  4025a4:	48 b8 61 62 6c 65 20 	movabs $0x206f7420656c6261,%rax
  4025ab:	74 6f 20 
  4025ae:	48 ba 72 65 73 6f 6c 	movabs $0x2065766c6f736572,%rdx
  4025b5:	76 65 20 
  4025b8:	48 89 45 10          	mov    %rax,0x10(%rbp)
  4025bc:	48 89 55 18          	mov    %rdx,0x18(%rbp)
  4025c0:	48 b8 73 65 72 76 65 	movabs $0x6120726576726573,%rax
  4025c7:	72 20 61 
  4025ca:	48 89 45 20          	mov    %rax,0x20(%rbp)
  4025ce:	c7 45 28 64 64 72 65 	movl   $0x65726464,0x28(%rbp)
  4025d5:	66 c7 45 2c 73 73    	movw   $0x7373,0x2c(%rbp)
  4025db:	c6 45 2e 00          	movb   $0x0,0x2e(%rbp)
  4025df:	89 df                	mov    %ebx,%edi
  4025e1:	e8 3a e7 ff ff       	callq  400d20 <close@plt>
  4025e6:	b8 ff ff ff ff       	mov    $0xffffffff,%eax
  4025eb:	e9 23 ff ff ff       	jmpq   402513 <submitr+0x2e7>
  4025f0:	48 b8 45 72 72 6f 72 	movabs $0x55203a726f727245,%rax
  4025f7:	3a 20 55 
  4025fa:	48 ba 6e 61 62 6c 65 	movabs $0x6f7420656c62616e,%rdx
  402601:	20 74 6f 
  402604:	48 89 45 00          	mov    %rax,0x0(%rbp)
  402608:	48 89 55 08          	mov    %rdx,0x8(%rbp)
  40260c:	48 b8 20 63 6f 6e 6e 	movabs $0x7463656e6e6f6320,%rax
  402613:	65 63 74 
  402616:	48 ba 20 74 6f 20 74 	movabs $0x20656874206f7420,%rdx
  40261d:	68 65 20 
  402620:	48 89 45 10          	mov    %rax,0x10(%rbp)
  402624:	48 89 55 18          	mov    %rdx,0x18(%rbp)
  402628:	c7 45 20 73 65 72 76 	movl   $0x76726573,0x20(%rbp)
  40262f:	66 c7 45 24 65 72    	movw   $0x7265,0x24(%rbp)
  402635:	c6 45 26 00          	movb   $0x0,0x26(%rbp)
  402639:	89 df                	mov    %ebx,%edi
  40263b:	e8 e0 e6 ff ff       	callq  400d20 <close@plt>
  402640:	b8 ff ff ff ff       	mov    $0xffffffff,%eax
  402645:	e9 c9 fe ff ff       	jmpq   402513 <submitr+0x2e7>
  40264a:	48 b8 45 72 72 6f 72 	movabs $0x52203a726f727245,%rax
  402651:	3a 20 52 
  402654:	48 ba 65 73 75 6c 74 	movabs $0x747320746c757365,%rdx
  40265b:	20 73 74 
  40265e:	48 89 45 00          	mov    %rax,0x0(%rbp)
  402662:	48 89 55 08          	mov    %rdx,0x8(%rbp)
  402666:	48 b8 72 69 6e 67 20 	movabs $0x6f6f7420676e6972,%rax
  40266d:	74 6f 6f 
  402670:	48 ba 20 6c 61 72 67 	movabs $0x202e656772616c20,%rdx
  402677:	65 2e 20 
  40267a:	48 89 45 10          	mov    %rax,0x10(%rbp)
  40267e:	48 89 55 18          	mov    %rdx,0x18(%rbp)
  402682:	48 b8 49 6e 63 72 65 	movabs $0x6573616572636e49,%rax
  402689:	61 73 65 
  40268c:	48 ba 20 53 55 42 4d 	movabs $0x5254494d42555320,%rdx
  402693:	49 54 52 
  402696:	48 89 45 20          	mov    %rax,0x20(%rbp)
  40269a:	48 89 55 28          	mov    %rdx,0x28(%rbp)
  40269e:	48 b8 5f 4d 41 58 42 	movabs $0x46554258414d5f,%rax
  4026a5:	55 46 00 
  4026a8:	48 89 45 30          	mov    %rax,0x30(%rbp)
  4026ac:	89 df                	mov    %ebx,%edi
  4026ae:	e8 6d e6 ff ff       	callq  400d20 <close@plt>
  4026b3:	b8 ff ff ff ff       	mov    $0xffffffff,%eax
  4026b8:	e9 56 fe ff ff       	jmpq   402513 <submitr+0x2e7>
  4026bd:	48 b8 45 72 72 6f 72 	movabs $0x52203a726f727245,%rax
  4026c4:	3a 20 52 
  4026c7:	48 ba 65 73 75 6c 74 	movabs $0x747320746c757365,%rdx
  4026ce:	20 73 74 
  4026d1:	48 89 45 00          	mov    %rax,0x0(%rbp)
  4026d5:	48 89 55 08          	mov    %rdx,0x8(%rbp)
  4026d9:	48 b8 72 69 6e 67 20 	movabs $0x6e6f6320676e6972,%rax
  4026e0:	63 6f 6e 
  4026e3:	48 ba 74 61 69 6e 73 	movabs $0x6e6120736e696174,%rdx
  4026ea:	20 61 6e 
  4026ed:	48 89 45 10          	mov    %rax,0x10(%rbp)
  4026f1:	48 89 55 18          	mov    %rdx,0x18(%rbp)
  4026f5:	48 b8 20 69 6c 6c 65 	movabs $0x6c6167656c6c6920,%rax
  4026fc:	67 61 6c 
  4026ff:	48 ba 20 6f 72 20 75 	movabs $0x72706e7520726f20,%rdx
  402706:	6e 70 72 
  402709:	48 89 45 20          	mov    %rax,0x20(%rbp)
  40270d:	48 89 55 28          	mov    %rdx,0x28(%rbp)
  402711:	48 b8 69 6e 74 61 62 	movabs $0x20656c6261746e69,%rax
  402718:	6c 65 20 
  40271b:	48 ba 63 68 61 72 61 	movabs $0x6574636172616863,%rdx
  402722:	63 74 65 
  402725:	48 89 45 30          	mov    %rax,0x30(%rbp)
  402729:	48 89 55 38          	mov    %rdx,0x38(%rbp)
  40272d:	66 c7 45 40 72 2e    	movw   $0x2e72,0x40(%rbp)
  402733:	c6 45 42 00          	movb   $0x0,0x42(%rbp)
  402737:	89 df                	mov    %ebx,%edi
  402739:	e8 e2 e5 ff ff       	callq  400d20 <close@plt>
  40273e:	b8 ff ff ff ff       	mov    $0xffffffff,%eax
  402743:	e9 cb fd ff ff       	jmpq   402513 <submitr+0x2e7>
  402748:	48 b8 45 72 72 6f 72 	movabs $0x43203a726f727245,%rax
  40274f:	3a 20 43 
  402752:	48 ba 6c 69 65 6e 74 	movabs $0x6e7520746e65696c,%rdx
  402759:	20 75 6e 
  40275c:	48 89 45 00          	mov    %rax,0x0(%rbp)
  402760:	48 89 55 08          	mov    %rdx,0x8(%rbp)
  402764:	48 b8 61 62 6c 65 20 	movabs $0x206f7420656c6261,%rax
  40276b:	74 6f 20 
  40276e:	48 ba 77 72 69 74 65 	movabs $0x6f74206574697277,%rdx
  402775:	20 74 6f 
  402778:	48 89 45 10          	mov    %rax,0x10(%rbp)
  40277c:	48 89 55 18          	mov    %rdx,0x18(%rbp)
  402780:	48 b8 20 74 68 65 20 	movabs $0x7365722065687420,%rax
  402787:	72 65 73 
  40278a:	48 ba 75 6c 74 20 73 	movabs $0x7672657320746c75,%rdx
  402791:	65 72 76 
  402794:	48 89 45 20          	mov    %rax,0x20(%rbp)
  402798:	48 89 55 28          	mov    %rdx,0x28(%rbp)
  40279c:	66 c7 45 30 65 72    	movw   $0x7265,0x30(%rbp)
  4027a2:	c6 45 32 00          	movb   $0x0,0x32(%rbp)
  4027a6:	89 df                	mov    %ebx,%edi
  4027a8:	e8 73 e5 ff ff       	callq  400d20 <close@plt>
  4027ad:	b8 ff ff ff ff       	mov    $0xffffffff,%eax
  4027b2:	e9 5c fd ff ff       	jmpq   402513 <submitr+0x2e7>
  4027b7:	48 b8 45 72 72 6f 72 	movabs $0x43203a726f727245,%rax
  4027be:	3a 20 43 
  4027c1:	48 ba 6c 69 65 6e 74 	movabs $0x6e7520746e65696c,%rdx
  4027c8:	20 75 6e 
  4027cb:	48 89 45 00          	mov    %rax,0x0(%rbp)
  4027cf:	48 89 55 08          	mov    %rdx,0x8(%rbp)
  4027d3:	48 b8 61 62 6c 65 20 	movabs $0x206f7420656c6261,%rax
  4027da:	74 6f 20 
  4027dd:	48 ba 72 65 61 64 20 	movabs $0x7269662064616572,%rdx
  4027e4:	66 69 72 
  4027e7:	48 89 45 10          	mov    %rax,0x10(%rbp)
  4027eb:	48 89 55 18          	mov    %rdx,0x18(%rbp)
  4027ef:	48 b8 73 74 20 68 65 	movabs $0x6564616568207473,%rax
  4027f6:	61 64 65 
  4027f9:	48 ba 72 20 66 72 6f 	movabs $0x72206d6f72662072,%rdx
  402800:	6d 20 72 
  402803:	48 89 45 20          	mov    %rax,0x20(%rbp)
  402807:	48 89 55 28          	mov    %rdx,0x28(%rbp)
  40280b:	48 b8 65 73 75 6c 74 	movabs $0x657320746c757365,%rax
  402812:	20 73 65 
  402815:	48 89 45 30          	mov    %rax,0x30(%rbp)
  402819:	c7 45 38 72 76 65 72 	movl   $0x72657672,0x38(%rbp)
  402820:	c6 45 3c 00          	movb   $0x0,0x3c(%rbp)
  402824:	89 df                	mov    %ebx,%edi
  402826:	e8 f5 e4 ff ff       	callq  400d20 <close@plt>
  40282b:	b8 ff ff ff ff       	mov    $0xffffffff,%eax
  402830:	e9 de fc ff ff       	jmpq   402513 <submitr+0x2e7>
  402835:	48 8d b4 24 50 20 00 	lea    0x2050(%rsp),%rsi
  40283c:	00 
  40283d:	48 8d 7c 24 40       	lea    0x40(%rsp),%rdi
  402842:	ba 00 20 00 00       	mov    $0x2000,%edx
  402847:	e8 29 f8 ff ff       	callq  402075 <rio_readlineb>
  40284c:	48 85 c0             	test   %rax,%rax
  40284f:	0f 8e 96 00 00 00    	jle    4028eb <submitr+0x6bf>
  402855:	44 8b 44 24 2c       	mov    0x2c(%rsp),%r8d
  40285a:	41 81 f8 c8 00 00 00 	cmp    $0xc8,%r8d
  402861:	0f 85 08 01 00 00    	jne    40296f <submitr+0x743>
  402867:	48 8d b4 24 50 20 00 	lea    0x2050(%rsp),%rsi
  40286e:	00 
  40286f:	48 89 ef             	mov    %rbp,%rdi
  402872:	e8 39 e4 ff ff       	callq  400cb0 <strcpy@plt>
  402877:	89 df                	mov    %ebx,%edi
  402879:	e8 a2 e4 ff ff       	callq  400d20 <close@plt>
  40287e:	b9 04 00 00 00       	mov    $0x4,%ecx
  402883:	48 8d 3d 86 0b 00 00 	lea    0xb86(%rip),%rdi        # 403410 <trans_char+0xc0>
  40288a:	48 89 ee             	mov    %rbp,%rsi
  40288d:	f3 a6                	repz cmpsb %es:(%rdi),%ds:(%rsi)
  40288f:	0f 97 c0             	seta   %al
  402892:	1c 00                	sbb    $0x0,%al
  402894:	0f be c0             	movsbl %al,%eax
  402897:	85 c0                	test   %eax,%eax
  402899:	0f 84 74 fc ff ff    	je     402513 <submitr+0x2e7>
  40289f:	b9 05 00 00 00       	mov    $0x5,%ecx
  4028a4:	48 8d 3d 69 0b 00 00 	lea    0xb69(%rip),%rdi        # 403414 <trans_char+0xc4>
  4028ab:	48 89 ee             	mov    %rbp,%rsi
  4028ae:	f3 a6                	repz cmpsb %es:(%rdi),%ds:(%rsi)
  4028b0:	0f 97 c0             	seta   %al
  4028b3:	1c 00                	sbb    $0x0,%al
  4028b5:	0f be c0             	movsbl %al,%eax
  4028b8:	85 c0                	test   %eax,%eax
  4028ba:	0f 84 53 fc ff ff    	je     402513 <submitr+0x2e7>
  4028c0:	b9 03 00 00 00       	mov    $0x3,%ecx
  4028c5:	48 8d 3d 4d 0b 00 00 	lea    0xb4d(%rip),%rdi        # 403419 <trans_char+0xc9>
  4028cc:	48 89 ee             	mov    %rbp,%rsi
  4028cf:	f3 a6                	repz cmpsb %es:(%rdi),%ds:(%rsi)
  4028d1:	0f 97 c0             	seta   %al
  4028d4:	1c 00                	sbb    $0x0,%al
  4028d6:	0f be c0             	movsbl %al,%eax
  4028d9:	85 c0                	test   %eax,%eax
  4028db:	0f 84 32 fc ff ff    	je     402513 <submitr+0x2e7>
  4028e1:	b8 ff ff ff ff       	mov    $0xffffffff,%eax
  4028e6:	e9 28 fc ff ff       	jmpq   402513 <submitr+0x2e7>
  4028eb:	48 b8 45 72 72 6f 72 	movabs $0x43203a726f727245,%rax
  4028f2:	3a 20 43 
  4028f5:	48 ba 6c 69 65 6e 74 	movabs $0x6e7520746e65696c,%rdx
  4028fc:	20 75 6e 
  4028ff:	48 89 45 00          	mov    %rax,0x0(%rbp)
  402903:	48 89 55 08          	mov    %rdx,0x8(%rbp)
  402907:	48 b8 61 62 6c 65 20 	movabs $0x206f7420656c6261,%rax
  40290e:	74 6f 20 
  402911:	48 ba 72 65 61 64 20 	movabs $0x6174732064616572,%rdx
  402918:	73 74 61 
  40291b:	48 89 45 10          	mov    %rax,0x10(%rbp)
  40291f:	48 89 55 18          	mov    %rdx,0x18(%rbp)
  402923:	48 b8 74 75 73 20 6d 	movabs $0x7373656d20737574,%rax
  40292a:	65 73 73 
  40292d:	48 ba 61 67 65 20 66 	movabs $0x6d6f726620656761,%rdx
  402934:	72 6f 6d 
  402937:	48 89 45 20          	mov    %rax,0x20(%rbp)
  40293b:	48 89 55 28          	mov    %rdx,0x28(%rbp)
  40293f:	48 b8 20 72 65 73 75 	movabs $0x20746c7573657220,%rax
  402946:	6c 74 20 
  402949:	48 89 45 30          	mov    %rax,0x30(%rbp)
  40294d:	c7 45 38 73 65 72 76 	movl   $0x76726573,0x38(%rbp)
  402954:	66 c7 45 3c 65 72    	movw   $0x7265,0x3c(%rbp)
  40295a:	c6 45 3e 00          	movb   $0x0,0x3e(%rbp)
  40295e:	89 df                	mov    %ebx,%edi
  402960:	e8 bb e3 ff ff       	callq  400d20 <close@plt>
  402965:	b8 ff ff ff ff       	mov    $0xffffffff,%eax
  40296a:	e9 a4 fb ff ff       	jmpq   402513 <submitr+0x2e7>
  40296f:	4c 8d 8c 24 50 80 00 	lea    0x8050(%rsp),%r9
  402976:	00 
  402977:	48 8d 0d 4a 0a 00 00 	lea    0xa4a(%rip),%rcx        # 4033c8 <trans_char+0x78>
  40297e:	48 c7 c2 ff ff ff ff 	mov    $0xffffffffffffffff,%rdx
  402985:	be 01 00 00 00       	mov    $0x1,%esi
  40298a:	48 89 ef             	mov    %rbp,%rdi
  40298d:	b8 00 00 00 00       	mov    $0x0,%eax
  402992:	e8 c9 e4 ff ff       	callq  400e60 <__sprintf_chk@plt>
  402997:	89 df                	mov    %ebx,%edi
  402999:	e8 82 e3 ff ff       	callq  400d20 <close@plt>
  40299e:	b8 ff ff ff ff       	mov    $0xffffffff,%eax
  4029a3:	e9 6b fb ff ff       	jmpq   402513 <submitr+0x2e7>
  4029a8:	e8 33 e3 ff ff       	callq  400ce0 <__stack_chk_fail@plt>

00000000004029ad <init_timeout>:
  4029ad:	85 ff                	test   %edi,%edi
  4029af:	74 28                	je     4029d9 <init_timeout+0x2c>
  4029b1:	53                   	push   %rbx
  4029b2:	89 fb                	mov    %edi,%ebx
  4029b4:	85 ff                	test   %edi,%edi
  4029b6:	78 1a                	js     4029d2 <init_timeout+0x25>
  4029b8:	48 8d 35 9d f5 ff ff 	lea    -0xa63(%rip),%rsi        # 401f5c <sigalrm_handler>
  4029bf:	bf 0e 00 00 00       	mov    $0xe,%edi
  4029c4:	e8 77 e3 ff ff       	callq  400d40 <signal@plt>
  4029c9:	89 df                	mov    %ebx,%edi
  4029cb:	e8 40 e3 ff ff       	callq  400d10 <alarm@plt>
  4029d0:	5b                   	pop    %rbx
  4029d1:	c3                   	retq   
  4029d2:	bb 00 00 00 00       	mov    $0x0,%ebx
  4029d7:	eb df                	jmp    4029b8 <init_timeout+0xb>
  4029d9:	f3 c3                	repz retq 

00000000004029db <init_driver>:
  4029db:	41 54                	push   %r12
  4029dd:	55                   	push   %rbp
  4029de:	53                   	push   %rbx
  4029df:	48 83 ec 20          	sub    $0x20,%rsp
  4029e3:	49 89 fc             	mov    %rdi,%r12
  4029e6:	64 48 8b 04 25 28 00 	mov    %fs:0x28,%rax
  4029ed:	00 00 
  4029ef:	48 89 44 24 18       	mov    %rax,0x18(%rsp)
  4029f4:	31 c0                	xor    %eax,%eax
  4029f6:	be 01 00 00 00       	mov    $0x1,%esi
  4029fb:	bf 0d 00 00 00       	mov    $0xd,%edi
  402a00:	e8 3b e3 ff ff       	callq  400d40 <signal@plt>
  402a05:	be 01 00 00 00       	mov    $0x1,%esi
  402a0a:	bf 1d 00 00 00       	mov    $0x1d,%edi
  402a0f:	e8 2c e3 ff ff       	callq  400d40 <signal@plt>
  402a14:	be 01 00 00 00       	mov    $0x1,%esi
  402a19:	bf 1d 00 00 00       	mov    $0x1d,%edi
  402a1e:	e8 1d e3 ff ff       	callq  400d40 <signal@plt>
  402a23:	ba 00 00 00 00       	mov    $0x0,%edx
  402a28:	be 01 00 00 00       	mov    $0x1,%esi
  402a2d:	bf 02 00 00 00       	mov    $0x2,%edi
  402a32:	e8 39 e4 ff ff       	callq  400e70 <socket@plt>
  402a37:	85 c0                	test   %eax,%eax
  402a39:	0f 88 a3 00 00 00    	js     402ae2 <init_driver+0x107>
  402a3f:	89 c3                	mov    %eax,%ebx
  402a41:	48 8d 3d d4 09 00 00 	lea    0x9d4(%rip),%rdi        # 40341c <trans_char+0xcc>
  402a48:	e8 03 e3 ff ff       	callq  400d50 <gethostbyname@plt>
  402a4d:	48 85 c0             	test   %rax,%rax
  402a50:	0f 84 df 00 00 00    	je     402b35 <init_driver+0x15a>
  402a56:	48 89 e5             	mov    %rsp,%rbp
  402a59:	48 c7 44 24 02 00 00 	movq   $0x0,0x2(%rsp)
  402a60:	00 00 
  402a62:	c7 45 0a 00 00 00 00 	movl   $0x0,0xa(%rbp)
  402a69:	66 c7 45 0e 00 00    	movw   $0x0,0xe(%rbp)
  402a6f:	66 c7 04 24 02 00    	movw   $0x2,(%rsp)
  402a75:	48 63 50 14          	movslq 0x14(%rax),%rdx
  402a79:	48 8b 40 18          	mov    0x18(%rax),%rax
  402a7d:	48 8b 30             	mov    (%rax),%rsi
  402a80:	48 8d 7d 04          	lea    0x4(%rbp),%rdi
  402a84:	b9 0c 00 00 00       	mov    $0xc,%ecx
  402a89:	e8 d2 e2 ff ff       	callq  400d60 <__memmove_chk@plt>
  402a8e:	66 c7 44 24 02 3c 9a 	movw   $0x9a3c,0x2(%rsp)
  402a95:	ba 10 00 00 00       	mov    $0x10,%edx
  402a9a:	48 89 ee             	mov    %rbp,%rsi
  402a9d:	89 df                	mov    %ebx,%edi
  402a9f:	e8 9c e3 ff ff       	callq  400e40 <connect@plt>
  402aa4:	85 c0                	test   %eax,%eax
  402aa6:	0f 88 fb 00 00 00    	js     402ba7 <init_driver+0x1cc>
  402aac:	89 df                	mov    %ebx,%edi
  402aae:	e8 6d e2 ff ff       	callq  400d20 <close@plt>
  402ab3:	66 41 c7 04 24 4f 4b 	movw   $0x4b4f,(%r12)
  402aba:	41 c6 44 24 02 00    	movb   $0x0,0x2(%r12)
  402ac0:	b8 00 00 00 00       	mov    $0x0,%eax
  402ac5:	48 8b 4c 24 18       	mov    0x18(%rsp),%rcx
  402aca:	64 48 33 0c 25 28 00 	xor    %fs:0x28,%rcx
  402ad1:	00 00 
  402ad3:	0f 85 28 01 00 00    	jne    402c01 <init_driver+0x226>
  402ad9:	48 83 c4 20          	add    $0x20,%rsp
  402add:	5b                   	pop    %rbx
  402ade:	5d                   	pop    %rbp
  402adf:	41 5c                	pop    %r12
  402ae1:	c3                   	retq   
  402ae2:	48 b8 45 72 72 6f 72 	movabs $0x43203a726f727245,%rax
  402ae9:	3a 20 43 
  402aec:	48 ba 6c 69 65 6e 74 	movabs $0x6e7520746e65696c,%rdx
  402af3:	20 75 6e 
  402af6:	49 89 04 24          	mov    %rax,(%r12)
  402afa:	49 89 54 24 08       	mov    %rdx,0x8(%r12)
  402aff:	48 b8 61 62 6c 65 20 	movabs $0x206f7420656c6261,%rax
  402b06:	74 6f 20 
  402b09:	48 ba 63 72 65 61 74 	movabs $0x7320657461657263,%rdx
  402b10:	65 20 73 
  402b13:	49 89 44 24 10       	mov    %rax,0x10(%r12)
  402b18:	49 89 54 24 18       	mov    %rdx,0x18(%r12)
  402b1d:	41 c7 44 24 20 6f 63 	movl   $0x656b636f,0x20(%r12)
  402b24:	6b 65 
  402b26:	66 41 c7 44 24 24 74 	movw   $0x74,0x24(%r12)
  402b2d:	00 
  402b2e:	b8 ff ff ff ff       	mov    $0xffffffff,%eax
  402b33:	eb 90                	jmp    402ac5 <init_driver+0xea>
  402b35:	48 b8 45 72 72 6f 72 	movabs $0x44203a726f727245,%rax
  402b3c:	3a 20 44 
  402b3f:	48 ba 4e 53 20 69 73 	movabs $0x6e7520736920534e,%rdx
  402b46:	20 75 6e 
  402b49:	49 89 04 24          	mov    %rax,(%r12)
  402b4d:	49 89 54 24 08       	mov    %rdx,0x8(%r12)
  402b52:	48 b8 61 62 6c 65 20 	movabs $0x206f7420656c6261,%rax
  402b59:	74 6f 20 
  402b5c:	48 ba 72 65 73 6f 6c 	movabs $0x2065766c6f736572,%rdx
  402b63:	76 65 20 
  402b66:	49 89 44 24 10       	mov    %rax,0x10(%r12)
  402b6b:	49 89 54 24 18       	mov    %rdx,0x18(%r12)
  402b70:	48 b8 73 65 72 76 65 	movabs $0x6120726576726573,%rax
  402b77:	72 20 61 
  402b7a:	49 89 44 24 20       	mov    %rax,0x20(%r12)
  402b7f:	41 c7 44 24 28 64 64 	movl   $0x65726464,0x28(%r12)
  402b86:	72 65 
  402b88:	66 41 c7 44 24 2c 73 	movw   $0x7373,0x2c(%r12)
  402b8f:	73 
  402b90:	41 c6 44 24 2e 00    	movb   $0x0,0x2e(%r12)
  402b96:	89 df                	mov    %ebx,%edi
  402b98:	e8 83 e1 ff ff       	callq  400d20 <close@plt>
  402b9d:	b8 ff ff ff ff       	mov    $0xffffffff,%eax
  402ba2:	e9 1e ff ff ff       	jmpq   402ac5 <init_driver+0xea>
  402ba7:	48 b8 45 72 72 6f 72 	movabs $0x55203a726f727245,%rax
  402bae:	3a 20 55 
  402bb1:	48 ba 6e 61 62 6c 65 	movabs $0x6f7420656c62616e,%rdx
  402bb8:	20 74 6f 
  402bbb:	49 89 04 24          	mov    %rax,(%r12)
  402bbf:	49 89 54 24 08       	mov    %rdx,0x8(%r12)
  402bc4:	48 b8 20 63 6f 6e 6e 	movabs $0x7463656e6e6f6320,%rax
  402bcb:	65 63 74 
  402bce:	48 ba 20 74 6f 20 73 	movabs $0x76726573206f7420,%rdx
  402bd5:	65 72 76 
  402bd8:	49 89 44 24 10       	mov    %rax,0x10(%r12)
  402bdd:	49 89 54 24 18       	mov    %rdx,0x18(%r12)
  402be2:	66 41 c7 44 24 20 65 	movw   $0x7265,0x20(%r12)
  402be9:	72 
  402bea:	41 c6 44 24 22 00    	movb   $0x0,0x22(%r12)
  402bf0:	89 df                	mov    %ebx,%edi
  402bf2:	e8 29 e1 ff ff       	callq  400d20 <close@plt>
  402bf7:	b8 ff ff ff ff       	mov    $0xffffffff,%eax
  402bfc:	e9 c4 fe ff ff       	jmpq   402ac5 <init_driver+0xea>
  402c01:	e8 da e0 ff ff       	callq  400ce0 <__stack_chk_fail@plt>

0000000000402c06 <driver_post>:
  402c06:	53                   	push   %rbx
  402c07:	4c 89 cb             	mov    %r9,%rbx
  402c0a:	45 85 c0             	test   %r8d,%r8d
  402c0d:	75 18                	jne    402c27 <driver_post+0x21>
  402c0f:	48 85 ff             	test   %rdi,%rdi
  402c12:	74 05                	je     402c19 <driver_post+0x13>
  402c14:	80 3f 00             	cmpb   $0x0,(%rdi)
  402c17:	75 37                	jne    402c50 <driver_post+0x4a>
  402c19:	66 c7 03 4f 4b       	movw   $0x4b4f,(%rbx)
  402c1e:	c6 43 02 00          	movb   $0x0,0x2(%rbx)
  402c22:	44 89 c0             	mov    %r8d,%eax
  402c25:	5b                   	pop    %rbx
  402c26:	c3                   	retq   
  402c27:	48 89 ca             	mov    %rcx,%rdx
  402c2a:	48 8d 35 03 08 00 00 	lea    0x803(%rip),%rsi        # 403434 <trans_char+0xe4>
  402c31:	bf 01 00 00 00       	mov    $0x1,%edi
  402c36:	b8 00 00 00 00       	mov    $0x0,%eax
  402c3b:	e8 a0 e1 ff ff       	callq  400de0 <__printf_chk@plt>
  402c40:	66 c7 03 4f 4b       	movw   $0x4b4f,(%rbx)
  402c45:	c6 43 02 00          	movb   $0x0,0x2(%rbx)
  402c49:	b8 00 00 00 00       	mov    $0x0,%eax
  402c4e:	eb d5                	jmp    402c25 <driver_post+0x1f>
  402c50:	48 83 ec 08          	sub    $0x8,%rsp
  402c54:	41 51                	push   %r9
  402c56:	49 89 c9             	mov    %rcx,%r9
  402c59:	49 89 d0             	mov    %rdx,%r8
  402c5c:	48 89 f9             	mov    %rdi,%rcx
  402c5f:	48 89 f2             	mov    %rsi,%rdx
  402c62:	be 9a 3c 00 00       	mov    $0x3c9a,%esi
  402c67:	48 8d 3d ae 07 00 00 	lea    0x7ae(%rip),%rdi        # 40341c <trans_char+0xcc>
  402c6e:	e8 b9 f5 ff ff       	callq  40222c <submitr>
  402c73:	48 83 c4 10          	add    $0x10,%rsp
  402c77:	eb ac                	jmp    402c25 <driver_post+0x1f>

0000000000402c79 <check>:
  402c79:	89 f8                	mov    %edi,%eax
  402c7b:	c1 e8 1c             	shr    $0x1c,%eax
  402c7e:	85 c0                	test   %eax,%eax
  402c80:	74 1d                	je     402c9f <check+0x26>
  402c82:	b9 00 00 00 00       	mov    $0x0,%ecx
  402c87:	83 f9 1f             	cmp    $0x1f,%ecx
  402c8a:	7f 0d                	jg     402c99 <check+0x20>
  402c8c:	89 f8                	mov    %edi,%eax
  402c8e:	d3 e8                	shr    %cl,%eax
  402c90:	3c 0a                	cmp    $0xa,%al
  402c92:	74 11                	je     402ca5 <check+0x2c>
  402c94:	83 c1 08             	add    $0x8,%ecx
  402c97:	eb ee                	jmp    402c87 <check+0xe>
  402c99:	b8 01 00 00 00       	mov    $0x1,%eax
  402c9e:	c3                   	retq   
  402c9f:	b8 00 00 00 00       	mov    $0x0,%eax
  402ca4:	c3                   	retq   
  402ca5:	b8 00 00 00 00       	mov    $0x0,%eax
  402caa:	c3                   	retq   

0000000000402cab <gencookie>:
  402cab:	53                   	push   %rbx
  402cac:	83 c7 01             	add    $0x1,%edi
  402caf:	e8 dc df ff ff       	callq  400c90 <srandom@plt>
  402cb4:	e8 e7 e0 ff ff       	callq  400da0 <random@plt>
  402cb9:	89 c3                	mov    %eax,%ebx
  402cbb:	89 c7                	mov    %eax,%edi
  402cbd:	e8 b7 ff ff ff       	callq  402c79 <check>
  402cc2:	85 c0                	test   %eax,%eax
  402cc4:	74 ee                	je     402cb4 <gencookie+0x9>
  402cc6:	89 d8                	mov    %ebx,%eax
  402cc8:	5b                   	pop    %rbx
  402cc9:	c3                   	retq   
  402cca:	66 0f 1f 44 00 00    	nopw   0x0(%rax,%rax,1)

0000000000402cd0 <__libc_csu_init>:
  402cd0:	41 57                	push   %r15
  402cd2:	41 56                	push   %r14
  402cd4:	49 89 d7             	mov    %rdx,%r15
  402cd7:	41 55                	push   %r13
  402cd9:	41 54                	push   %r12
  402cdb:	4c 8d 25 2e 11 20 00 	lea    0x20112e(%rip),%r12        # 603e10 <__frame_dummy_init_array_entry>
  402ce2:	55                   	push   %rbp
  402ce3:	48 8d 2d 2e 11 20 00 	lea    0x20112e(%rip),%rbp        # 603e18 <__init_array_end>
  402cea:	53                   	push   %rbx
  402ceb:	41 89 fd             	mov    %edi,%r13d
  402cee:	49 89 f6             	mov    %rsi,%r14
  402cf1:	4c 29 e5             	sub    %r12,%rbp
  402cf4:	48 83 ec 08          	sub    $0x8,%rsp
  402cf8:	48 c1 fd 03          	sar    $0x3,%rbp
  402cfc:	e8 47 df ff ff       	callq  400c48 <_init>
  402d01:	48 85 ed             	test   %rbp,%rbp
  402d04:	74 20                	je     402d26 <__libc_csu_init+0x56>
  402d06:	31 db                	xor    %ebx,%ebx
  402d08:	0f 1f 84 00 00 00 00 	nopl   0x0(%rax,%rax,1)
  402d0f:	00 
  402d10:	4c 89 fa             	mov    %r15,%rdx
  402d13:	4c 89 f6             	mov    %r14,%rsi
  402d16:	44 89 ef             	mov    %r13d,%edi
  402d19:	41 ff 14 dc          	callq  *(%r12,%rbx,8)
  402d1d:	48 83 c3 01          	add    $0x1,%rbx
  402d21:	48 39 dd             	cmp    %rbx,%rbp
  402d24:	75 ea                	jne    402d10 <__libc_csu_init+0x40>
  402d26:	48 83 c4 08          	add    $0x8,%rsp
  402d2a:	5b                   	pop    %rbx
  402d2b:	5d                   	pop    %rbp
  402d2c:	41 5c                	pop    %r12
  402d2e:	41 5d                	pop    %r13
  402d30:	41 5e                	pop    %r14
  402d32:	41 5f                	pop    %r15
  402d34:	c3                   	retq   
  402d35:	90                   	nop
  402d36:	66 2e 0f 1f 84 00 00 	nopw   %cs:0x0(%rax,%rax,1)
  402d3d:	00 00 00 

0000000000402d40 <__libc_csu_fini>:
  402d40:	f3 c3                	repz retq 

Disassembly of section .fini:

0000000000402d44 <_fini>:
  402d44:	48 83 ec 08          	sub    $0x8,%rsp
  402d48:	48 83 c4 08          	add    $0x8,%rsp
  402d4c:	c3                   	retq   
