
rtarget:     file format elf64-x86-64


Disassembly of section .init:

0000000000400c48 <_init>:
  400c48:	48 83 ec 08          	sub    $0x8,%rsp
  400c4c:	48 8b 05 a5 43 20 00 	mov    0x2043a5(%rip),%rax        # 604ff8 <__gmon_start__>
  400c53:	48 85 c0             	test   %rax,%rax
  400c56:	74 02                	je     400c5a <_init+0x12>
  400c58:	ff d0                	callq  *%rax
  400c5a:	48 83 c4 08          	add    $0x8,%rsp
  400c5e:	c3                   	retq   

Disassembly of section .plt:

0000000000400c60 <.plt>:
  400c60:	ff 35 a2 43 20 00    	pushq  0x2043a2(%rip)        # 605008 <_GLOBAL_OFFSET_TABLE_+0x8>
  400c66:	ff 25 a4 43 20 00    	jmpq   *0x2043a4(%rip)        # 605010 <_GLOBAL_OFFSET_TABLE_+0x10>
  400c6c:	0f 1f 40 00          	nopl   0x0(%rax)

0000000000400c70 <strcasecmp@plt>:
  400c70:	ff 25 a2 43 20 00    	jmpq   *0x2043a2(%rip)        # 605018 <strcasecmp@GLIBC_2.2.5>
  400c76:	68 00 00 00 00       	pushq  $0x0
  400c7b:	e9 e0 ff ff ff       	jmpq   400c60 <.plt>

0000000000400c80 <__errno_location@plt>:
  400c80:	ff 25 9a 43 20 00    	jmpq   *0x20439a(%rip)        # 605020 <__errno_location@GLIBC_2.2.5>
  400c86:	68 01 00 00 00       	pushq  $0x1
  400c8b:	e9 d0 ff ff ff       	jmpq   400c60 <.plt>

0000000000400c90 <srandom@plt>:
  400c90:	ff 25 92 43 20 00    	jmpq   *0x204392(%rip)        # 605028 <srandom@GLIBC_2.2.5>
  400c96:	68 02 00 00 00       	pushq  $0x2
  400c9b:	e9 c0 ff ff ff       	jmpq   400c60 <.plt>

0000000000400ca0 <strncmp@plt>:
  400ca0:	ff 25 8a 43 20 00    	jmpq   *0x20438a(%rip)        # 605030 <strncmp@GLIBC_2.2.5>
  400ca6:	68 03 00 00 00       	pushq  $0x3
  400cab:	e9 b0 ff ff ff       	jmpq   400c60 <.plt>

0000000000400cb0 <strcpy@plt>:
  400cb0:	ff 25 82 43 20 00    	jmpq   *0x204382(%rip)        # 605038 <strcpy@GLIBC_2.2.5>
  400cb6:	68 04 00 00 00       	pushq  $0x4
  400cbb:	e9 a0 ff ff ff       	jmpq   400c60 <.plt>

0000000000400cc0 <puts@plt>:
  400cc0:	ff 25 7a 43 20 00    	jmpq   *0x20437a(%rip)        # 605040 <puts@GLIBC_2.2.5>
  400cc6:	68 05 00 00 00       	pushq  $0x5
  400ccb:	e9 90 ff ff ff       	jmpq   400c60 <.plt>

0000000000400cd0 <write@plt>:
  400cd0:	ff 25 72 43 20 00    	jmpq   *0x204372(%rip)        # 605048 <write@GLIBC_2.2.5>
  400cd6:	68 06 00 00 00       	pushq  $0x6
  400cdb:	e9 80 ff ff ff       	jmpq   400c60 <.plt>

0000000000400ce0 <__stack_chk_fail@plt>:
  400ce0:	ff 25 6a 43 20 00    	jmpq   *0x20436a(%rip)        # 605050 <__stack_chk_fail@GLIBC_2.4>
  400ce6:	68 07 00 00 00       	pushq  $0x7
  400ceb:	e9 70 ff ff ff       	jmpq   400c60 <.plt>

0000000000400cf0 <mmap@plt>:
  400cf0:	ff 25 62 43 20 00    	jmpq   *0x204362(%rip)        # 605058 <mmap@GLIBC_2.2.5>
  400cf6:	68 08 00 00 00       	pushq  $0x8
  400cfb:	e9 60 ff ff ff       	jmpq   400c60 <.plt>

0000000000400d00 <memset@plt>:
  400d00:	ff 25 5a 43 20 00    	jmpq   *0x20435a(%rip)        # 605060 <memset@GLIBC_2.2.5>
  400d06:	68 09 00 00 00       	pushq  $0x9
  400d0b:	e9 50 ff ff ff       	jmpq   400c60 <.plt>

0000000000400d10 <alarm@plt>:
  400d10:	ff 25 52 43 20 00    	jmpq   *0x204352(%rip)        # 605068 <alarm@GLIBC_2.2.5>
  400d16:	68 0a 00 00 00       	pushq  $0xa
  400d1b:	e9 40 ff ff ff       	jmpq   400c60 <.plt>

0000000000400d20 <close@plt>:
  400d20:	ff 25 4a 43 20 00    	jmpq   *0x20434a(%rip)        # 605070 <close@GLIBC_2.2.5>
  400d26:	68 0b 00 00 00       	pushq  $0xb
  400d2b:	e9 30 ff ff ff       	jmpq   400c60 <.plt>

0000000000400d30 <read@plt>:
  400d30:	ff 25 42 43 20 00    	jmpq   *0x204342(%rip)        # 605078 <read@GLIBC_2.2.5>
  400d36:	68 0c 00 00 00       	pushq  $0xc
  400d3b:	e9 20 ff ff ff       	jmpq   400c60 <.plt>

0000000000400d40 <signal@plt>:
  400d40:	ff 25 3a 43 20 00    	jmpq   *0x20433a(%rip)        # 605080 <signal@GLIBC_2.2.5>
  400d46:	68 0d 00 00 00       	pushq  $0xd
  400d4b:	e9 10 ff ff ff       	jmpq   400c60 <.plt>

0000000000400d50 <gethostbyname@plt>:
  400d50:	ff 25 32 43 20 00    	jmpq   *0x204332(%rip)        # 605088 <gethostbyname@GLIBC_2.2.5>
  400d56:	68 0e 00 00 00       	pushq  $0xe
  400d5b:	e9 00 ff ff ff       	jmpq   400c60 <.plt>

0000000000400d60 <__memmove_chk@plt>:
  400d60:	ff 25 2a 43 20 00    	jmpq   *0x20432a(%rip)        # 605090 <__memmove_chk@GLIBC_2.3.4>
  400d66:	68 0f 00 00 00       	pushq  $0xf
  400d6b:	e9 f0 fe ff ff       	jmpq   400c60 <.plt>

0000000000400d70 <strtol@plt>:
  400d70:	ff 25 22 43 20 00    	jmpq   *0x204322(%rip)        # 605098 <strtol@GLIBC_2.2.5>
  400d76:	68 10 00 00 00       	pushq  $0x10
  400d7b:	e9 e0 fe ff ff       	jmpq   400c60 <.plt>

0000000000400d80 <memcpy@plt>:
  400d80:	ff 25 1a 43 20 00    	jmpq   *0x20431a(%rip)        # 6050a0 <memcpy@GLIBC_2.14>
  400d86:	68 11 00 00 00       	pushq  $0x11
  400d8b:	e9 d0 fe ff ff       	jmpq   400c60 <.plt>

0000000000400d90 <time@plt>:
  400d90:	ff 25 12 43 20 00    	jmpq   *0x204312(%rip)        # 6050a8 <time@GLIBC_2.2.5>
  400d96:	68 12 00 00 00       	pushq  $0x12
  400d9b:	e9 c0 fe ff ff       	jmpq   400c60 <.plt>

0000000000400da0 <random@plt>:
  400da0:	ff 25 0a 43 20 00    	jmpq   *0x20430a(%rip)        # 6050b0 <random@GLIBC_2.2.5>
  400da6:	68 13 00 00 00       	pushq  $0x13
  400dab:	e9 b0 fe ff ff       	jmpq   400c60 <.plt>

0000000000400db0 <_IO_getc@plt>:
  400db0:	ff 25 02 43 20 00    	jmpq   *0x204302(%rip)        # 6050b8 <_IO_getc@GLIBC_2.2.5>
  400db6:	68 14 00 00 00       	pushq  $0x14
  400dbb:	e9 a0 fe ff ff       	jmpq   400c60 <.plt>

0000000000400dc0 <__isoc99_sscanf@plt>:
  400dc0:	ff 25 fa 42 20 00    	jmpq   *0x2042fa(%rip)        # 6050c0 <__isoc99_sscanf@GLIBC_2.7>
  400dc6:	68 15 00 00 00       	pushq  $0x15
  400dcb:	e9 90 fe ff ff       	jmpq   400c60 <.plt>

0000000000400dd0 <munmap@plt>:
  400dd0:	ff 25 f2 42 20 00    	jmpq   *0x2042f2(%rip)        # 6050c8 <munmap@GLIBC_2.2.5>
  400dd6:	68 16 00 00 00       	pushq  $0x16
  400ddb:	e9 80 fe ff ff       	jmpq   400c60 <.plt>

0000000000400de0 <__printf_chk@plt>:
  400de0:	ff 25 ea 42 20 00    	jmpq   *0x2042ea(%rip)        # 6050d0 <__printf_chk@GLIBC_2.3.4>
  400de6:	68 17 00 00 00       	pushq  $0x17
  400deb:	e9 70 fe ff ff       	jmpq   400c60 <.plt>

0000000000400df0 <fopen@plt>:
  400df0:	ff 25 e2 42 20 00    	jmpq   *0x2042e2(%rip)        # 6050d8 <fopen@GLIBC_2.2.5>
  400df6:	68 18 00 00 00       	pushq  $0x18
  400dfb:	e9 60 fe ff ff       	jmpq   400c60 <.plt>

0000000000400e00 <getopt@plt>:
  400e00:	ff 25 da 42 20 00    	jmpq   *0x2042da(%rip)        # 6050e0 <getopt@GLIBC_2.2.5>
  400e06:	68 19 00 00 00       	pushq  $0x19
  400e0b:	e9 50 fe ff ff       	jmpq   400c60 <.plt>

0000000000400e10 <strtoul@plt>:
  400e10:	ff 25 d2 42 20 00    	jmpq   *0x2042d2(%rip)        # 6050e8 <strtoul@GLIBC_2.2.5>
  400e16:	68 1a 00 00 00       	pushq  $0x1a
  400e1b:	e9 40 fe ff ff       	jmpq   400c60 <.plt>

0000000000400e20 <gethostname@plt>:
  400e20:	ff 25 ca 42 20 00    	jmpq   *0x2042ca(%rip)        # 6050f0 <gethostname@GLIBC_2.2.5>
  400e26:	68 1b 00 00 00       	pushq  $0x1b
  400e2b:	e9 30 fe ff ff       	jmpq   400c60 <.plt>

0000000000400e30 <exit@plt>:
  400e30:	ff 25 c2 42 20 00    	jmpq   *0x2042c2(%rip)        # 6050f8 <exit@GLIBC_2.2.5>
  400e36:	68 1c 00 00 00       	pushq  $0x1c
  400e3b:	e9 20 fe ff ff       	jmpq   400c60 <.plt>

0000000000400e40 <connect@plt>:
  400e40:	ff 25 ba 42 20 00    	jmpq   *0x2042ba(%rip)        # 605100 <connect@GLIBC_2.2.5>
  400e46:	68 1d 00 00 00       	pushq  $0x1d
  400e4b:	e9 10 fe ff ff       	jmpq   400c60 <.plt>

0000000000400e50 <__fprintf_chk@plt>:
  400e50:	ff 25 b2 42 20 00    	jmpq   *0x2042b2(%rip)        # 605108 <__fprintf_chk@GLIBC_2.3.4>
  400e56:	68 1e 00 00 00       	pushq  $0x1e
  400e5b:	e9 00 fe ff ff       	jmpq   400c60 <.plt>

0000000000400e60 <__sprintf_chk@plt>:
  400e60:	ff 25 aa 42 20 00    	jmpq   *0x2042aa(%rip)        # 605110 <__sprintf_chk@GLIBC_2.3.4>
  400e66:	68 1f 00 00 00       	pushq  $0x1f
  400e6b:	e9 f0 fd ff ff       	jmpq   400c60 <.plt>

0000000000400e70 <socket@plt>:
  400e70:	ff 25 a2 42 20 00    	jmpq   *0x2042a2(%rip)        # 605118 <socket@GLIBC_2.2.5>
  400e76:	68 20 00 00 00       	pushq  $0x20
  400e7b:	e9 e0 fd ff ff       	jmpq   400c60 <.plt>

Disassembly of section .text:

0000000000400e80 <_start>:
  400e80:	31 ed                	xor    %ebp,%ebp
  400e82:	49 89 d1             	mov    %rdx,%r9
  400e85:	5e                   	pop    %rsi
  400e86:	48 89 e2             	mov    %rsp,%rdx
  400e89:	48 83 e4 f0          	and    $0xfffffffffffffff0,%rsp
  400e8d:	50                   	push   %rax
  400e8e:	54                   	push   %rsp
  400e8f:	49 c7 c0 60 2e 40 00 	mov    $0x402e60,%r8
  400e96:	48 c7 c1 f0 2d 40 00 	mov    $0x402df0,%rcx
  400e9d:	48 c7 c7 8e 11 40 00 	mov    $0x40118e,%rdi
  400ea4:	ff 15 46 41 20 00    	callq  *0x204146(%rip)        # 604ff0 <__libc_start_main@GLIBC_2.2.5>
  400eaa:	f4                   	hlt    
  400eab:	0f 1f 44 00 00       	nopl   0x0(%rax,%rax,1)

0000000000400eb0 <_dl_relocate_static_pie>:
  400eb0:	f3 c3                	repz retq 
  400eb2:	66 2e 0f 1f 84 00 00 	nopw   %cs:0x0(%rax,%rax,1)
  400eb9:	00 00 00 
  400ebc:	0f 1f 40 00          	nopl   0x0(%rax)

0000000000400ec0 <deregister_tm_clones>:
  400ec0:	55                   	push   %rbp
  400ec1:	b8 88 54 60 00       	mov    $0x605488,%eax
  400ec6:	48 3d 88 54 60 00    	cmp    $0x605488,%rax
  400ecc:	48 89 e5             	mov    %rsp,%rbp
  400ecf:	74 17                	je     400ee8 <deregister_tm_clones+0x28>
  400ed1:	b8 00 00 00 00       	mov    $0x0,%eax
  400ed6:	48 85 c0             	test   %rax,%rax
  400ed9:	74 0d                	je     400ee8 <deregister_tm_clones+0x28>
  400edb:	5d                   	pop    %rbp
  400edc:	bf 88 54 60 00       	mov    $0x605488,%edi
  400ee1:	ff e0                	jmpq   *%rax
  400ee3:	0f 1f 44 00 00       	nopl   0x0(%rax,%rax,1)
  400ee8:	5d                   	pop    %rbp
  400ee9:	c3                   	retq   
  400eea:	66 0f 1f 44 00 00    	nopw   0x0(%rax,%rax,1)

0000000000400ef0 <register_tm_clones>:
  400ef0:	be 88 54 60 00       	mov    $0x605488,%esi
  400ef5:	55                   	push   %rbp
  400ef6:	48 81 ee 88 54 60 00 	sub    $0x605488,%rsi
  400efd:	48 89 e5             	mov    %rsp,%rbp
  400f00:	48 c1 fe 03          	sar    $0x3,%rsi
  400f04:	48 89 f0             	mov    %rsi,%rax
  400f07:	48 c1 e8 3f          	shr    $0x3f,%rax
  400f0b:	48 01 c6             	add    %rax,%rsi
  400f0e:	48 d1 fe             	sar    %rsi
  400f11:	74 15                	je     400f28 <register_tm_clones+0x38>
  400f13:	b8 00 00 00 00       	mov    $0x0,%eax
  400f18:	48 85 c0             	test   %rax,%rax
  400f1b:	74 0b                	je     400f28 <register_tm_clones+0x38>
  400f1d:	5d                   	pop    %rbp
  400f1e:	bf 88 54 60 00       	mov    $0x605488,%edi
  400f23:	ff e0                	jmpq   *%rax
  400f25:	0f 1f 00             	nopl   (%rax)
  400f28:	5d                   	pop    %rbp
  400f29:	c3                   	retq   
  400f2a:	66 0f 1f 44 00 00    	nopw   0x0(%rax,%rax,1)

0000000000400f30 <__do_global_dtors_aux>:
  400f30:	80 3d 91 45 20 00 00 	cmpb   $0x0,0x204591(%rip)        # 6054c8 <completed.7698>
  400f37:	75 17                	jne    400f50 <__do_global_dtors_aux+0x20>
  400f39:	55                   	push   %rbp
  400f3a:	48 89 e5             	mov    %rsp,%rbp
  400f3d:	e8 7e ff ff ff       	callq  400ec0 <deregister_tm_clones>
  400f42:	c6 05 7f 45 20 00 01 	movb   $0x1,0x20457f(%rip)        # 6054c8 <completed.7698>
  400f49:	5d                   	pop    %rbp
  400f4a:	c3                   	retq   
  400f4b:	0f 1f 44 00 00       	nopl   0x0(%rax,%rax,1)
  400f50:	f3 c3                	repz retq 
  400f52:	0f 1f 40 00          	nopl   0x0(%rax)
  400f56:	66 2e 0f 1f 84 00 00 	nopw   %cs:0x0(%rax,%rax,1)
  400f5d:	00 00 00 

0000000000400f60 <frame_dummy>:
  400f60:	55                   	push   %rbp
  400f61:	48 89 e5             	mov    %rsp,%rbp
  400f64:	5d                   	pop    %rbp
  400f65:	eb 89                	jmp    400ef0 <register_tm_clones>

0000000000400f67 <usage>:
  400f67:	48 83 ec 08          	sub    $0x8,%rsp
  400f6b:	48 89 fa             	mov    %rdi,%rdx
  400f6e:	83 3d 97 45 20 00 00 	cmpl   $0x0,0x204597(%rip)        # 60550c <is_checker>
  400f75:	74 50                	je     400fc7 <usage+0x60>
  400f77:	48 8d 35 fa 1e 00 00 	lea    0x1efa(%rip),%rsi        # 402e78 <_IO_stdin_used+0x8>
  400f7e:	bf 01 00 00 00       	mov    $0x1,%edi
  400f83:	b8 00 00 00 00       	mov    $0x0,%eax
  400f88:	e8 53 fe ff ff       	callq  400de0 <__printf_chk@plt>
  400f8d:	48 8d 3d 1c 1f 00 00 	lea    0x1f1c(%rip),%rdi        # 402eb0 <_IO_stdin_used+0x40>
  400f94:	e8 27 fd ff ff       	callq  400cc0 <puts@plt>
  400f99:	48 8d 3d 52 20 00 00 	lea    0x2052(%rip),%rdi        # 402ff2 <_IO_stdin_used+0x182>
  400fa0:	e8 1b fd ff ff       	callq  400cc0 <puts@plt>
  400fa5:	48 8d 3d 2c 1f 00 00 	lea    0x1f2c(%rip),%rdi        # 402ed8 <_IO_stdin_used+0x68>
  400fac:	e8 0f fd ff ff       	callq  400cc0 <puts@plt>
  400fb1:	48 8d 3d 54 20 00 00 	lea    0x2054(%rip),%rdi        # 40300c <_IO_stdin_used+0x19c>
  400fb8:	e8 03 fd ff ff       	callq  400cc0 <puts@plt>
  400fbd:	bf 00 00 00 00       	mov    $0x0,%edi
  400fc2:	e8 69 fe ff ff       	callq  400e30 <exit@plt>
  400fc7:	48 8d 35 5a 20 00 00 	lea    0x205a(%rip),%rsi        # 403028 <_IO_stdin_used+0x1b8>
  400fce:	bf 01 00 00 00       	mov    $0x1,%edi
  400fd3:	b8 00 00 00 00       	mov    $0x0,%eax
  400fd8:	e8 03 fe ff ff       	callq  400de0 <__printf_chk@plt>
  400fdd:	48 8d 3d 1c 1f 00 00 	lea    0x1f1c(%rip),%rdi        # 402f00 <_IO_stdin_used+0x90>
  400fe4:	e8 d7 fc ff ff       	callq  400cc0 <puts@plt>
  400fe9:	48 8d 3d 38 1f 00 00 	lea    0x1f38(%rip),%rdi        # 402f28 <_IO_stdin_used+0xb8>
  400ff0:	e8 cb fc ff ff       	callq  400cc0 <puts@plt>
  400ff5:	48 8d 3d 4a 20 00 00 	lea    0x204a(%rip),%rdi        # 403046 <_IO_stdin_used+0x1d6>
  400ffc:	e8 bf fc ff ff       	callq  400cc0 <puts@plt>
  401001:	eb ba                	jmp    400fbd <usage+0x56>

0000000000401003 <initialize_target>:
  401003:	55                   	push   %rbp
  401004:	53                   	push   %rbx
  401005:	48 81 ec 18 21 00 00 	sub    $0x2118,%rsp
  40100c:	89 f5                	mov    %esi,%ebp
  40100e:	64 48 8b 04 25 28 00 	mov    %fs:0x28,%rax
  401015:	00 00 
  401017:	48 89 84 24 08 21 00 	mov    %rax,0x2108(%rsp)
  40101e:	00 
  40101f:	31 c0                	xor    %eax,%eax
  401021:	89 3d d5 44 20 00    	mov    %edi,0x2044d5(%rip)        # 6054fc <check_level>
  401027:	8b 3d 03 41 20 00    	mov    0x204103(%rip),%edi        # 605130 <target_id>
  40102d:	e8 9b 1d 00 00       	callq  402dcd <gencookie>
  401032:	89 05 d0 44 20 00    	mov    %eax,0x2044d0(%rip)        # 605508 <cookie>
  401038:	89 c7                	mov    %eax,%edi
  40103a:	e8 8e 1d 00 00       	callq  402dcd <gencookie>
  40103f:	89 05 bf 44 20 00    	mov    %eax,0x2044bf(%rip)        # 605504 <authkey>
  401045:	8b 05 e5 40 20 00    	mov    0x2040e5(%rip),%eax        # 605130 <target_id>
  40104b:	8d 78 01             	lea    0x1(%rax),%edi
  40104e:	e8 3d fc ff ff       	callq  400c90 <srandom@plt>
  401053:	e8 48 fd ff ff       	callq  400da0 <random@plt>
  401058:	89 c7                	mov    %eax,%edi
  40105a:	e8 de 02 00 00       	callq  40133d <scramble>
  40105f:	89 c3                	mov    %eax,%ebx
  401061:	85 ed                	test   %ebp,%ebp
  401063:	75 54                	jne    4010b9 <initialize_target+0xb6>
  401065:	b8 00 00 00 00       	mov    $0x0,%eax
  40106a:	01 d8                	add    %ebx,%eax
  40106c:	0f b7 c0             	movzwl %ax,%eax
  40106f:	8d 04 c5 00 01 00 00 	lea    0x100(,%rax,8),%eax
  401076:	89 c0                	mov    %eax,%eax
  401078:	48 89 05 01 44 20 00 	mov    %rax,0x204401(%rip)        # 605480 <buf_offset>
  40107f:	c6 05 a2 50 20 00 72 	movb   $0x72,0x2050a2(%rip)        # 606128 <target_prefix>
  401086:	83 3d 6b 44 20 00 00 	cmpl   $0x0,0x20446b(%rip)        # 6054f8 <notify>
  40108d:	74 09                	je     401098 <initialize_target+0x95>
  40108f:	83 3d 76 44 20 00 00 	cmpl   $0x0,0x204476(%rip)        # 60550c <is_checker>
  401096:	74 39                	je     4010d1 <initialize_target+0xce>
  401098:	48 8b 84 24 08 21 00 	mov    0x2108(%rsp),%rax
  40109f:	00 
  4010a0:	64 48 33 04 25 28 00 	xor    %fs:0x28,%rax
  4010a7:	00 00 
  4010a9:	0f 85 da 00 00 00    	jne    401189 <initialize_target+0x186>
  4010af:	48 81 c4 18 21 00 00 	add    $0x2118,%rsp
  4010b6:	5b                   	pop    %rbx
  4010b7:	5d                   	pop    %rbp
  4010b8:	c3                   	retq   
  4010b9:	bf 00 00 00 00       	mov    $0x0,%edi
  4010be:	e8 cd fc ff ff       	callq  400d90 <time@plt>
  4010c3:	89 c7                	mov    %eax,%edi
  4010c5:	e8 c6 fb ff ff       	callq  400c90 <srandom@plt>
  4010ca:	e8 d1 fc ff ff       	callq  400da0 <random@plt>
  4010cf:	eb 99                	jmp    40106a <initialize_target+0x67>
  4010d1:	48 89 e7             	mov    %rsp,%rdi
  4010d4:	be 00 01 00 00       	mov    $0x100,%esi
  4010d9:	e8 42 fd ff ff       	callq  400e20 <gethostname@plt>
  4010de:	89 c5                	mov    %eax,%ebp
  4010e0:	85 c0                	test   %eax,%eax
  4010e2:	75 26                	jne    40110a <initialize_target+0x107>
  4010e4:	89 c3                	mov    %eax,%ebx
  4010e6:	48 63 c3             	movslq %ebx,%rax
  4010e9:	48 8d 15 70 40 20 00 	lea    0x204070(%rip),%rdx        # 605160 <host_table>
  4010f0:	48 8b 3c c2          	mov    (%rdx,%rax,8),%rdi
  4010f4:	48 85 ff             	test   %rdi,%rdi
  4010f7:	74 2c                	je     401125 <initialize_target+0x122>
  4010f9:	48 89 e6             	mov    %rsp,%rsi
  4010fc:	e8 6f fb ff ff       	callq  400c70 <strcasecmp@plt>
  401101:	85 c0                	test   %eax,%eax
  401103:	74 1b                	je     401120 <initialize_target+0x11d>
  401105:	83 c3 01             	add    $0x1,%ebx
  401108:	eb dc                	jmp    4010e6 <initialize_target+0xe3>
  40110a:	48 8d 3d 47 1e 00 00 	lea    0x1e47(%rip),%rdi        # 402f58 <_IO_stdin_used+0xe8>
  401111:	e8 aa fb ff ff       	callq  400cc0 <puts@plt>
  401116:	bf 08 00 00 00       	mov    $0x8,%edi
  40111b:	e8 10 fd ff ff       	callq  400e30 <exit@plt>
  401120:	bd 01 00 00 00       	mov    $0x1,%ebp
  401125:	85 ed                	test   %ebp,%ebp
  401127:	74 3d                	je     401166 <initialize_target+0x163>
  401129:	48 8d bc 24 00 01 00 	lea    0x100(%rsp),%rdi
  401130:	00 
  401131:	e8 c7 19 00 00       	callq  402afd <init_driver>
  401136:	85 c0                	test   %eax,%eax
  401138:	0f 89 5a ff ff ff    	jns    401098 <initialize_target+0x95>
  40113e:	48 8d 94 24 00 01 00 	lea    0x100(%rsp),%rdx
  401145:	00 
  401146:	48 8d 35 83 1e 00 00 	lea    0x1e83(%rip),%rsi        # 402fd0 <_IO_stdin_used+0x160>
  40114d:	bf 01 00 00 00       	mov    $0x1,%edi
  401152:	b8 00 00 00 00       	mov    $0x0,%eax
  401157:	e8 84 fc ff ff       	callq  400de0 <__printf_chk@plt>
  40115c:	bf 08 00 00 00       	mov    $0x8,%edi
  401161:	e8 ca fc ff ff       	callq  400e30 <exit@plt>
  401166:	48 89 e2             	mov    %rsp,%rdx
  401169:	48 8d 35 20 1e 00 00 	lea    0x1e20(%rip),%rsi        # 402f90 <_IO_stdin_used+0x120>
  401170:	bf 01 00 00 00       	mov    $0x1,%edi
  401175:	b8 00 00 00 00       	mov    $0x0,%eax
  40117a:	e8 61 fc ff ff       	callq  400de0 <__printf_chk@plt>
  40117f:	bf 08 00 00 00       	mov    $0x8,%edi
  401184:	e8 a7 fc ff ff       	callq  400e30 <exit@plt>
  401189:	e8 52 fb ff ff       	callq  400ce0 <__stack_chk_fail@plt>

000000000040118e <main>:
  40118e:	41 55                	push   %r13
  401190:	41 54                	push   %r12
  401192:	55                   	push   %rbp
  401193:	53                   	push   %rbx
  401194:	48 83 ec 08          	sub    $0x8,%rsp
  401198:	41 89 fc             	mov    %edi,%r12d
  40119b:	48 89 f3             	mov    %rsi,%rbx
  40119e:	48 c7 c6 04 1e 40 00 	mov    $0x401e04,%rsi
  4011a5:	bf 0b 00 00 00       	mov    $0xb,%edi
  4011aa:	e8 91 fb ff ff       	callq  400d40 <signal@plt>
  4011af:	48 c7 c6 b0 1d 40 00 	mov    $0x401db0,%rsi
  4011b6:	bf 07 00 00 00       	mov    $0x7,%edi
  4011bb:	e8 80 fb ff ff       	callq  400d40 <signal@plt>
  4011c0:	48 c7 c6 58 1e 40 00 	mov    $0x401e58,%rsi
  4011c7:	bf 04 00 00 00       	mov    $0x4,%edi
  4011cc:	e8 6f fb ff ff       	callq  400d40 <signal@plt>
  4011d1:	83 3d 34 43 20 00 00 	cmpl   $0x0,0x204334(%rip)        # 60550c <is_checker>
  4011d8:	75 20                	jne    4011fa <main+0x6c>
  4011da:	48 8d 2d 7e 1e 00 00 	lea    0x1e7e(%rip),%rbp        # 40305f <_IO_stdin_used+0x1ef>
  4011e1:	48 8b 05 b8 42 20 00 	mov    0x2042b8(%rip),%rax        # 6054a0 <stdin@@GLIBC_2.2.5>
  4011e8:	48 89 05 01 43 20 00 	mov    %rax,0x204301(%rip)        # 6054f0 <infile>
  4011ef:	41 bd 00 00 00 00    	mov    $0x0,%r13d
  4011f5:	e9 8a 00 00 00       	jmpq   401284 <main+0xf6>
  4011fa:	48 c7 c6 ac 1e 40 00 	mov    $0x401eac,%rsi
  401201:	bf 0e 00 00 00       	mov    $0xe,%edi
  401206:	e8 35 fb ff ff       	callq  400d40 <signal@plt>
  40120b:	bf 05 00 00 00       	mov    $0x5,%edi
  401210:	e8 fb fa ff ff       	callq  400d10 <alarm@plt>
  401215:	48 8d 2d 48 1e 00 00 	lea    0x1e48(%rip),%rbp        # 403064 <_IO_stdin_used+0x1f4>
  40121c:	eb c3                	jmp    4011e1 <main+0x53>
  40121e:	48 8b 3b             	mov    (%rbx),%rdi
  401221:	e8 41 fd ff ff       	callq  400f67 <usage>
  401226:	48 8d 35 6d 20 00 00 	lea    0x206d(%rip),%rsi        # 40329a <_IO_stdin_used+0x42a>
  40122d:	48 8b 3d 74 42 20 00 	mov    0x204274(%rip),%rdi        # 6054a8 <optarg@@GLIBC_2.2.5>
  401234:	e8 b7 fb ff ff       	callq  400df0 <fopen@plt>
  401239:	48 89 05 b0 42 20 00 	mov    %rax,0x2042b0(%rip)        # 6054f0 <infile>
  401240:	48 85 c0             	test   %rax,%rax
  401243:	75 3f                	jne    401284 <main+0xf6>
  401245:	48 8b 0d 5c 42 20 00 	mov    0x20425c(%rip),%rcx        # 6054a8 <optarg@@GLIBC_2.2.5>
  40124c:	48 8d 15 19 1e 00 00 	lea    0x1e19(%rip),%rdx        # 40306c <_IO_stdin_used+0x1fc>
  401253:	be 01 00 00 00       	mov    $0x1,%esi
  401258:	48 8b 3d 61 42 20 00 	mov    0x204261(%rip),%rdi        # 6054c0 <stderr@@GLIBC_2.2.5>
  40125f:	e8 ec fb ff ff       	callq  400e50 <__fprintf_chk@plt>
  401264:	b8 01 00 00 00       	mov    $0x1,%eax
  401269:	e9 c4 00 00 00       	jmpq   401332 <main+0x1a4>
  40126e:	ba 10 00 00 00       	mov    $0x10,%edx
  401273:	be 00 00 00 00       	mov    $0x0,%esi
  401278:	48 8b 3d 29 42 20 00 	mov    0x204229(%rip),%rdi        # 6054a8 <optarg@@GLIBC_2.2.5>
  40127f:	e8 8c fb ff ff       	callq  400e10 <strtoul@plt>
  401284:	48 89 ea             	mov    %rbp,%rdx
  401287:	48 89 de             	mov    %rbx,%rsi
  40128a:	44 89 e7             	mov    %r12d,%edi
  40128d:	e8 6e fb ff ff       	callq  400e00 <getopt@plt>
  401292:	3c ff                	cmp    $0xff,%al
  401294:	74 62                	je     4012f8 <main+0x16a>
  401296:	0f be d0             	movsbl %al,%edx
  401299:	83 e8 61             	sub    $0x61,%eax
  40129c:	3c 10                	cmp    $0x10,%al
  40129e:	77 3a                	ja     4012da <main+0x14c>
  4012a0:	0f b6 c0             	movzbl %al,%eax
  4012a3:	48 8d 0d 02 1e 00 00 	lea    0x1e02(%rip),%rcx        # 4030ac <_IO_stdin_used+0x23c>
  4012aa:	48 63 04 81          	movslq (%rcx,%rax,4),%rax
  4012ae:	48 01 c8             	add    %rcx,%rax
  4012b1:	ff e0                	jmpq   *%rax
  4012b3:	ba 0a 00 00 00       	mov    $0xa,%edx
  4012b8:	be 00 00 00 00       	mov    $0x0,%esi
  4012bd:	48 8b 3d e4 41 20 00 	mov    0x2041e4(%rip),%rdi        # 6054a8 <optarg@@GLIBC_2.2.5>
  4012c4:	e8 a7 fa ff ff       	callq  400d70 <strtol@plt>
  4012c9:	41 89 c5             	mov    %eax,%r13d
  4012cc:	eb b6                	jmp    401284 <main+0xf6>
  4012ce:	c7 05 20 42 20 00 00 	movl   $0x0,0x204220(%rip)        # 6054f8 <notify>
  4012d5:	00 00 00 
  4012d8:	eb aa                	jmp    401284 <main+0xf6>
  4012da:	48 8d 35 a8 1d 00 00 	lea    0x1da8(%rip),%rsi        # 403089 <_IO_stdin_used+0x219>
  4012e1:	bf 01 00 00 00       	mov    $0x1,%edi
  4012e6:	b8 00 00 00 00       	mov    $0x0,%eax
  4012eb:	e8 f0 fa ff ff       	callq  400de0 <__printf_chk@plt>
  4012f0:	48 8b 3b             	mov    (%rbx),%rdi
  4012f3:	e8 6f fc ff ff       	callq  400f67 <usage>
  4012f8:	be 01 00 00 00       	mov    $0x1,%esi
  4012fd:	44 89 ef             	mov    %r13d,%edi
  401300:	e8 fe fc ff ff       	callq  401003 <initialize_target>
  401305:	8b 15 fd 41 20 00    	mov    0x2041fd(%rip),%edx        # 605508 <cookie>
  40130b:	48 8d 35 8a 1d 00 00 	lea    0x1d8a(%rip),%rsi        # 40309c <_IO_stdin_used+0x22c>
  401312:	bf 01 00 00 00       	mov    $0x1,%edi
  401317:	b8 00 00 00 00       	mov    $0x0,%eax
  40131c:	e8 bf fa ff ff       	callq  400de0 <__printf_chk@plt>
  401321:	48 8b 3d 58 41 20 00 	mov    0x204158(%rip),%rdi        # 605480 <buf_offset>
  401328:	e8 d6 0b 00 00       	callq  401f03 <launch>
  40132d:	b8 00 00 00 00       	mov    $0x0,%eax
  401332:	48 83 c4 08          	add    $0x8,%rsp
  401336:	5b                   	pop    %rbx
  401337:	5d                   	pop    %rbp
  401338:	41 5c                	pop    %r12
  40133a:	41 5d                	pop    %r13
  40133c:	c3                   	retq   

000000000040133d <scramble>:
  40133d:	48 83 ec 38          	sub    $0x38,%rsp
  401341:	64 48 8b 04 25 28 00 	mov    %fs:0x28,%rax
  401348:	00 00 
  40134a:	48 89 44 24 28       	mov    %rax,0x28(%rsp)
  40134f:	31 c0                	xor    %eax,%eax
  401351:	eb 10                	jmp    401363 <scramble+0x26>
  401353:	69 d0 5c 83 00 00    	imul   $0x835c,%eax,%edx
  401359:	01 fa                	add    %edi,%edx
  40135b:	89 c1                	mov    %eax,%ecx
  40135d:	89 14 8c             	mov    %edx,(%rsp,%rcx,4)
  401360:	83 c0 01             	add    $0x1,%eax
  401363:	83 f8 09             	cmp    $0x9,%eax
  401366:	76 eb                	jbe    401353 <scramble+0x16>
  401368:	8b 44 24 0c          	mov    0xc(%rsp),%eax
  40136c:	69 c0 b6 df 00 00    	imul   $0xdfb6,%eax,%eax
  401372:	89 44 24 0c          	mov    %eax,0xc(%rsp)
  401376:	8b 44 24 08          	mov    0x8(%rsp),%eax
  40137a:	69 c0 07 13 00 00    	imul   $0x1307,%eax,%eax
  401380:	89 44 24 08          	mov    %eax,0x8(%rsp)
  401384:	8b 44 24 20          	mov    0x20(%rsp),%eax
  401388:	69 c0 fa e4 00 00    	imul   $0xe4fa,%eax,%eax
  40138e:	89 44 24 20          	mov    %eax,0x20(%rsp)
  401392:	8b 44 24 24          	mov    0x24(%rsp),%eax
  401396:	69 c0 2a 27 00 00    	imul   $0x272a,%eax,%eax
  40139c:	89 44 24 24          	mov    %eax,0x24(%rsp)
  4013a0:	8b 44 24 14          	mov    0x14(%rsp),%eax
  4013a4:	69 c0 b8 bc 00 00    	imul   $0xbcb8,%eax,%eax
  4013aa:	89 44 24 14          	mov    %eax,0x14(%rsp)
  4013ae:	8b 44 24 04          	mov    0x4(%rsp),%eax
  4013b2:	69 c0 08 02 00 00    	imul   $0x208,%eax,%eax
  4013b8:	89 44 24 04          	mov    %eax,0x4(%rsp)
  4013bc:	8b 44 24 18          	mov    0x18(%rsp),%eax
  4013c0:	69 c0 6e ef 00 00    	imul   $0xef6e,%eax,%eax
  4013c6:	89 44 24 18          	mov    %eax,0x18(%rsp)
  4013ca:	8b 44 24 20          	mov    0x20(%rsp),%eax
  4013ce:	69 c0 bc 56 00 00    	imul   $0x56bc,%eax,%eax
  4013d4:	89 44 24 20          	mov    %eax,0x20(%rsp)
  4013d8:	8b 04 24             	mov    (%rsp),%eax
  4013db:	69 c0 f0 4f 00 00    	imul   $0x4ff0,%eax,%eax
  4013e1:	89 04 24             	mov    %eax,(%rsp)
  4013e4:	8b 44 24 10          	mov    0x10(%rsp),%eax
  4013e8:	69 c0 d9 0e 00 00    	imul   $0xed9,%eax,%eax
  4013ee:	89 44 24 10          	mov    %eax,0x10(%rsp)
  4013f2:	8b 44 24 0c          	mov    0xc(%rsp),%eax
  4013f6:	69 c0 97 42 00 00    	imul   $0x4297,%eax,%eax
  4013fc:	89 44 24 0c          	mov    %eax,0xc(%rsp)
  401400:	8b 44 24 14          	mov    0x14(%rsp),%eax
  401404:	69 c0 7e 08 00 00    	imul   $0x87e,%eax,%eax
  40140a:	89 44 24 14          	mov    %eax,0x14(%rsp)
  40140e:	8b 44 24 18          	mov    0x18(%rsp),%eax
  401412:	69 c0 e4 6f 00 00    	imul   $0x6fe4,%eax,%eax
  401418:	89 44 24 18          	mov    %eax,0x18(%rsp)
  40141c:	8b 44 24 0c          	mov    0xc(%rsp),%eax
  401420:	69 c0 b0 84 00 00    	imul   $0x84b0,%eax,%eax
  401426:	89 44 24 0c          	mov    %eax,0xc(%rsp)
  40142a:	8b 44 24 04          	mov    0x4(%rsp),%eax
  40142e:	69 c0 cb 23 00 00    	imul   $0x23cb,%eax,%eax
  401434:	89 44 24 04          	mov    %eax,0x4(%rsp)
  401438:	8b 44 24 04          	mov    0x4(%rsp),%eax
  40143c:	69 c0 24 d1 00 00    	imul   $0xd124,%eax,%eax
  401442:	89 44 24 04          	mov    %eax,0x4(%rsp)
  401446:	8b 44 24 04          	mov    0x4(%rsp),%eax
  40144a:	69 c0 5c 8e 00 00    	imul   $0x8e5c,%eax,%eax
  401450:	89 44 24 04          	mov    %eax,0x4(%rsp)
  401454:	8b 04 24             	mov    (%rsp),%eax
  401457:	69 c0 f4 bc 00 00    	imul   $0xbcf4,%eax,%eax
  40145d:	89 04 24             	mov    %eax,(%rsp)
  401460:	8b 44 24 20          	mov    0x20(%rsp),%eax
  401464:	69 c0 b9 68 00 00    	imul   $0x68b9,%eax,%eax
  40146a:	89 44 24 20          	mov    %eax,0x20(%rsp)
  40146e:	8b 44 24 04          	mov    0x4(%rsp),%eax
  401472:	69 c0 25 77 00 00    	imul   $0x7725,%eax,%eax
  401478:	89 44 24 04          	mov    %eax,0x4(%rsp)
  40147c:	8b 44 24 18          	mov    0x18(%rsp),%eax
  401480:	69 c0 bb 4c 00 00    	imul   $0x4cbb,%eax,%eax
  401486:	89 44 24 18          	mov    %eax,0x18(%rsp)
  40148a:	8b 44 24 04          	mov    0x4(%rsp),%eax
  40148e:	69 c0 0a c8 00 00    	imul   $0xc80a,%eax,%eax
  401494:	89 44 24 04          	mov    %eax,0x4(%rsp)
  401498:	8b 44 24 14          	mov    0x14(%rsp),%eax
  40149c:	69 c0 8a f3 00 00    	imul   $0xf38a,%eax,%eax
  4014a2:	89 44 24 14          	mov    %eax,0x14(%rsp)
  4014a6:	8b 44 24 18          	mov    0x18(%rsp),%eax
  4014aa:	69 c0 b5 90 00 00    	imul   $0x90b5,%eax,%eax
  4014b0:	89 44 24 18          	mov    %eax,0x18(%rsp)
  4014b4:	8b 44 24 18          	mov    0x18(%rsp),%eax
  4014b8:	69 c0 89 ba 00 00    	imul   $0xba89,%eax,%eax
  4014be:	89 44 24 18          	mov    %eax,0x18(%rsp)
  4014c2:	8b 44 24 18          	mov    0x18(%rsp),%eax
  4014c6:	69 c0 0c 0d 00 00    	imul   $0xd0c,%eax,%eax
  4014cc:	89 44 24 18          	mov    %eax,0x18(%rsp)
  4014d0:	8b 44 24 20          	mov    0x20(%rsp),%eax
  4014d4:	69 c0 99 ae 00 00    	imul   $0xae99,%eax,%eax
  4014da:	89 44 24 20          	mov    %eax,0x20(%rsp)
  4014de:	8b 44 24 14          	mov    0x14(%rsp),%eax
  4014e2:	69 c0 0a c5 00 00    	imul   $0xc50a,%eax,%eax
  4014e8:	89 44 24 14          	mov    %eax,0x14(%rsp)
  4014ec:	8b 04 24             	mov    (%rsp),%eax
  4014ef:	69 c0 8c 4a 00 00    	imul   $0x4a8c,%eax,%eax
  4014f5:	89 04 24             	mov    %eax,(%rsp)
  4014f8:	8b 44 24 20          	mov    0x20(%rsp),%eax
  4014fc:	69 c0 45 6c 00 00    	imul   $0x6c45,%eax,%eax
  401502:	89 44 24 20          	mov    %eax,0x20(%rsp)
  401506:	8b 44 24 24          	mov    0x24(%rsp),%eax
  40150a:	69 c0 a3 86 00 00    	imul   $0x86a3,%eax,%eax
  401510:	89 44 24 24          	mov    %eax,0x24(%rsp)
  401514:	8b 44 24 1c          	mov    0x1c(%rsp),%eax
  401518:	69 c0 d9 71 00 00    	imul   $0x71d9,%eax,%eax
  40151e:	89 44 24 1c          	mov    %eax,0x1c(%rsp)
  401522:	8b 44 24 1c          	mov    0x1c(%rsp),%eax
  401526:	69 c0 94 21 00 00    	imul   $0x2194,%eax,%eax
  40152c:	89 44 24 1c          	mov    %eax,0x1c(%rsp)
  401530:	8b 44 24 04          	mov    0x4(%rsp),%eax
  401534:	69 c0 56 88 00 00    	imul   $0x8856,%eax,%eax
  40153a:	89 44 24 04          	mov    %eax,0x4(%rsp)
  40153e:	8b 44 24 04          	mov    0x4(%rsp),%eax
  401542:	69 c0 eb 12 00 00    	imul   $0x12eb,%eax,%eax
  401548:	89 44 24 04          	mov    %eax,0x4(%rsp)
  40154c:	8b 44 24 08          	mov    0x8(%rsp),%eax
  401550:	69 c0 bf af 00 00    	imul   $0xafbf,%eax,%eax
  401556:	89 44 24 08          	mov    %eax,0x8(%rsp)
  40155a:	8b 44 24 1c          	mov    0x1c(%rsp),%eax
  40155e:	69 c0 a9 78 00 00    	imul   $0x78a9,%eax,%eax
  401564:	89 44 24 1c          	mov    %eax,0x1c(%rsp)
  401568:	8b 44 24 04          	mov    0x4(%rsp),%eax
  40156c:	69 c0 d0 9b 00 00    	imul   $0x9bd0,%eax,%eax
  401572:	89 44 24 04          	mov    %eax,0x4(%rsp)
  401576:	8b 44 24 24          	mov    0x24(%rsp),%eax
  40157a:	69 c0 90 96 00 00    	imul   $0x9690,%eax,%eax
  401580:	89 44 24 24          	mov    %eax,0x24(%rsp)
  401584:	8b 44 24 04          	mov    0x4(%rsp),%eax
  401588:	69 c0 ae af 00 00    	imul   $0xafae,%eax,%eax
  40158e:	89 44 24 04          	mov    %eax,0x4(%rsp)
  401592:	8b 44 24 08          	mov    0x8(%rsp),%eax
  401596:	69 c0 14 cc 00 00    	imul   $0xcc14,%eax,%eax
  40159c:	89 44 24 08          	mov    %eax,0x8(%rsp)
  4015a0:	8b 44 24 1c          	mov    0x1c(%rsp),%eax
  4015a4:	69 c0 3a 4e 00 00    	imul   $0x4e3a,%eax,%eax
  4015aa:	89 44 24 1c          	mov    %eax,0x1c(%rsp)
  4015ae:	8b 44 24 08          	mov    0x8(%rsp),%eax
  4015b2:	69 c0 45 d2 00 00    	imul   $0xd245,%eax,%eax
  4015b8:	89 44 24 08          	mov    %eax,0x8(%rsp)
  4015bc:	8b 44 24 24          	mov    0x24(%rsp),%eax
  4015c0:	69 c0 2b 99 00 00    	imul   $0x992b,%eax,%eax
  4015c6:	89 44 24 24          	mov    %eax,0x24(%rsp)
  4015ca:	8b 44 24 18          	mov    0x18(%rsp),%eax
  4015ce:	69 c0 fe 5c 00 00    	imul   $0x5cfe,%eax,%eax
  4015d4:	89 44 24 18          	mov    %eax,0x18(%rsp)
  4015d8:	8b 44 24 18          	mov    0x18(%rsp),%eax
  4015dc:	69 c0 29 8b 00 00    	imul   $0x8b29,%eax,%eax
  4015e2:	89 44 24 18          	mov    %eax,0x18(%rsp)
  4015e6:	8b 44 24 24          	mov    0x24(%rsp),%eax
  4015ea:	69 c0 d9 42 00 00    	imul   $0x42d9,%eax,%eax
  4015f0:	89 44 24 24          	mov    %eax,0x24(%rsp)
  4015f4:	8b 44 24 24          	mov    0x24(%rsp),%eax
  4015f8:	69 c0 a1 f8 00 00    	imul   $0xf8a1,%eax,%eax
  4015fe:	89 44 24 24          	mov    %eax,0x24(%rsp)
  401602:	8b 44 24 1c          	mov    0x1c(%rsp),%eax
  401606:	69 c0 d0 2b 00 00    	imul   $0x2bd0,%eax,%eax
  40160c:	89 44 24 1c          	mov    %eax,0x1c(%rsp)
  401610:	8b 44 24 18          	mov    0x18(%rsp),%eax
  401614:	69 c0 ba ee 00 00    	imul   $0xeeba,%eax,%eax
  40161a:	89 44 24 18          	mov    %eax,0x18(%rsp)
  40161e:	8b 44 24 1c          	mov    0x1c(%rsp),%eax
  401622:	69 c0 73 80 00 00    	imul   $0x8073,%eax,%eax
  401628:	89 44 24 1c          	mov    %eax,0x1c(%rsp)
  40162c:	8b 44 24 18          	mov    0x18(%rsp),%eax
  401630:	69 c0 62 9e 00 00    	imul   $0x9e62,%eax,%eax
  401636:	89 44 24 18          	mov    %eax,0x18(%rsp)
  40163a:	8b 44 24 10          	mov    0x10(%rsp),%eax
  40163e:	69 c0 43 16 00 00    	imul   $0x1643,%eax,%eax
  401644:	89 44 24 10          	mov    %eax,0x10(%rsp)
  401648:	8b 44 24 24          	mov    0x24(%rsp),%eax
  40164c:	69 c0 50 65 00 00    	imul   $0x6550,%eax,%eax
  401652:	89 44 24 24          	mov    %eax,0x24(%rsp)
  401656:	8b 04 24             	mov    (%rsp),%eax
  401659:	69 c0 b8 66 00 00    	imul   $0x66b8,%eax,%eax
  40165f:	89 04 24             	mov    %eax,(%rsp)
  401662:	8b 44 24 08          	mov    0x8(%rsp),%eax
  401666:	69 c0 ed fd 00 00    	imul   $0xfded,%eax,%eax
  40166c:	89 44 24 08          	mov    %eax,0x8(%rsp)
  401670:	8b 44 24 0c          	mov    0xc(%rsp),%eax
  401674:	69 c0 b8 d1 00 00    	imul   $0xd1b8,%eax,%eax
  40167a:	89 44 24 0c          	mov    %eax,0xc(%rsp)
  40167e:	8b 44 24 1c          	mov    0x1c(%rsp),%eax
  401682:	69 c0 79 ad 00 00    	imul   $0xad79,%eax,%eax
  401688:	89 44 24 1c          	mov    %eax,0x1c(%rsp)
  40168c:	8b 44 24 18          	mov    0x18(%rsp),%eax
  401690:	69 c0 6b 5f 00 00    	imul   $0x5f6b,%eax,%eax
  401696:	89 44 24 18          	mov    %eax,0x18(%rsp)
  40169a:	8b 44 24 24          	mov    0x24(%rsp),%eax
  40169e:	69 c0 cf c0 00 00    	imul   $0xc0cf,%eax,%eax
  4016a4:	89 44 24 24          	mov    %eax,0x24(%rsp)
  4016a8:	8b 44 24 18          	mov    0x18(%rsp),%eax
  4016ac:	69 c0 14 4c 00 00    	imul   $0x4c14,%eax,%eax
  4016b2:	89 44 24 18          	mov    %eax,0x18(%rsp)
  4016b6:	8b 44 24 04          	mov    0x4(%rsp),%eax
  4016ba:	69 c0 0b a0 00 00    	imul   $0xa00b,%eax,%eax
  4016c0:	89 44 24 04          	mov    %eax,0x4(%rsp)
  4016c4:	8b 44 24 14          	mov    0x14(%rsp),%eax
  4016c8:	69 c0 fb 48 00 00    	imul   $0x48fb,%eax,%eax
  4016ce:	89 44 24 14          	mov    %eax,0x14(%rsp)
  4016d2:	8b 44 24 18          	mov    0x18(%rsp),%eax
  4016d6:	69 c0 5a f3 00 00    	imul   $0xf35a,%eax,%eax
  4016dc:	89 44 24 18          	mov    %eax,0x18(%rsp)
  4016e0:	8b 44 24 14          	mov    0x14(%rsp),%eax
  4016e4:	69 c0 a4 19 00 00    	imul   $0x19a4,%eax,%eax
  4016ea:	89 44 24 14          	mov    %eax,0x14(%rsp)
  4016ee:	8b 44 24 0c          	mov    0xc(%rsp),%eax
  4016f2:	69 c0 88 b3 00 00    	imul   $0xb388,%eax,%eax
  4016f8:	89 44 24 0c          	mov    %eax,0xc(%rsp)
  4016fc:	8b 44 24 10          	mov    0x10(%rsp),%eax
  401700:	69 c0 8e 80 00 00    	imul   $0x808e,%eax,%eax
  401706:	89 44 24 10          	mov    %eax,0x10(%rsp)
  40170a:	8b 44 24 24          	mov    0x24(%rsp),%eax
  40170e:	69 c0 34 93 00 00    	imul   $0x9334,%eax,%eax
  401714:	89 44 24 24          	mov    %eax,0x24(%rsp)
  401718:	8b 44 24 08          	mov    0x8(%rsp),%eax
  40171c:	69 c0 1d 8c 00 00    	imul   $0x8c1d,%eax,%eax
  401722:	89 44 24 08          	mov    %eax,0x8(%rsp)
  401726:	8b 44 24 1c          	mov    0x1c(%rsp),%eax
  40172a:	69 c0 a5 43 00 00    	imul   $0x43a5,%eax,%eax
  401730:	89 44 24 1c          	mov    %eax,0x1c(%rsp)
  401734:	8b 44 24 10          	mov    0x10(%rsp),%eax
  401738:	69 c0 82 0d 00 00    	imul   $0xd82,%eax,%eax
  40173e:	89 44 24 10          	mov    %eax,0x10(%rsp)
  401742:	8b 44 24 18          	mov    0x18(%rsp),%eax
  401746:	69 c0 a1 25 00 00    	imul   $0x25a1,%eax,%eax
  40174c:	89 44 24 18          	mov    %eax,0x18(%rsp)
  401750:	8b 04 24             	mov    (%rsp),%eax
  401753:	69 c0 b9 8d 00 00    	imul   $0x8db9,%eax,%eax
  401759:	89 04 24             	mov    %eax,(%rsp)
  40175c:	8b 44 24 18          	mov    0x18(%rsp),%eax
  401760:	69 c0 38 83 00 00    	imul   $0x8338,%eax,%eax
  401766:	89 44 24 18          	mov    %eax,0x18(%rsp)
  40176a:	8b 44 24 0c          	mov    0xc(%rsp),%eax
  40176e:	69 c0 bf 19 00 00    	imul   $0x19bf,%eax,%eax
  401774:	89 44 24 0c          	mov    %eax,0xc(%rsp)
  401778:	ba 00 00 00 00       	mov    $0x0,%edx
  40177d:	b8 00 00 00 00       	mov    $0x0,%eax
  401782:	eb 0a                	jmp    40178e <scramble+0x451>
  401784:	89 d1                	mov    %edx,%ecx
  401786:	8b 0c 8c             	mov    (%rsp,%rcx,4),%ecx
  401789:	01 c8                	add    %ecx,%eax
  40178b:	83 c2 01             	add    $0x1,%edx
  40178e:	83 fa 09             	cmp    $0x9,%edx
  401791:	76 f1                	jbe    401784 <scramble+0x447>
  401793:	48 8b 74 24 28       	mov    0x28(%rsp),%rsi
  401798:	64 48 33 34 25 28 00 	xor    %fs:0x28,%rsi
  40179f:	00 00 
  4017a1:	75 05                	jne    4017a8 <scramble+0x46b>
  4017a3:	48 83 c4 38          	add    $0x38,%rsp
  4017a7:	c3                   	retq   
  4017a8:	e8 33 f5 ff ff       	callq  400ce0 <__stack_chk_fail@plt>

00000000004017ad <getbuf>:
  4017ad:	48 83 ec 18          	sub    $0x18,%rsp
  4017b1:	48 89 e7             	mov    %rsp,%rdi
  4017b4:	e8 b6 03 00 00       	callq  401b6f <Gets>
  4017b9:	b8 01 00 00 00       	mov    $0x1,%eax
  4017be:	48 83 c4 18          	add    $0x18,%rsp
  4017c2:	c3                   	retq   

00000000004017c3 <touch1>:
  4017c3:	48 83 ec 08          	sub    $0x8,%rsp
  4017c7:	c7 05 2f 3d 20 00 01 	movl   $0x1,0x203d2f(%rip)        # 605500 <vlevel>
  4017ce:	00 00 00 
  4017d1:	48 8d 3d 66 19 00 00 	lea    0x1966(%rip),%rdi        # 40313e <_IO_stdin_used+0x2ce>
  4017d8:	e8 e3 f4 ff ff       	callq  400cc0 <puts@plt>
  4017dd:	bf 01 00 00 00       	mov    $0x1,%edi
  4017e2:	e8 d1 04 00 00       	callq  401cb8 <validate>
  4017e7:	bf 00 00 00 00       	mov    $0x0,%edi
  4017ec:	e8 3f f6 ff ff       	callq  400e30 <exit@plt>

00000000004017f1 <touch2>:
  4017f1:	48 83 ec 08          	sub    $0x8,%rsp
  4017f5:	89 fa                	mov    %edi,%edx
  4017f7:	c7 05 ff 3c 20 00 02 	movl   $0x2,0x203cff(%rip)        # 605500 <vlevel>
  4017fe:	00 00 00 
  401801:	39 3d 01 3d 20 00    	cmp    %edi,0x203d01(%rip)        # 605508 <cookie>
  401807:	74 2a                	je     401833 <touch2+0x42>
  401809:	48 8d 35 78 19 00 00 	lea    0x1978(%rip),%rsi        # 403188 <_IO_stdin_used+0x318>
  401810:	bf 01 00 00 00       	mov    $0x1,%edi
  401815:	b8 00 00 00 00       	mov    $0x0,%eax
  40181a:	e8 c1 f5 ff ff       	callq  400de0 <__printf_chk@plt>
  40181f:	bf 02 00 00 00       	mov    $0x2,%edi
  401824:	e8 5f 05 00 00       	callq  401d88 <fail>
  401829:	bf 00 00 00 00       	mov    $0x0,%edi
  40182e:	e8 fd f5 ff ff       	callq  400e30 <exit@plt>
  401833:	48 8d 35 26 19 00 00 	lea    0x1926(%rip),%rsi        # 403160 <_IO_stdin_used+0x2f0>
  40183a:	bf 01 00 00 00       	mov    $0x1,%edi
  40183f:	b8 00 00 00 00       	mov    $0x0,%eax
  401844:	e8 97 f5 ff ff       	callq  400de0 <__printf_chk@plt>
  401849:	bf 02 00 00 00       	mov    $0x2,%edi
  40184e:	e8 65 04 00 00       	callq  401cb8 <validate>
  401853:	eb d4                	jmp    401829 <touch2+0x38>

0000000000401855 <hexmatch>:
  401855:	41 54                	push   %r12
  401857:	55                   	push   %rbp
  401858:	53                   	push   %rbx
  401859:	48 83 c4 80          	add    $0xffffffffffffff80,%rsp
  40185d:	89 fd                	mov    %edi,%ebp
  40185f:	48 89 f3             	mov    %rsi,%rbx
  401862:	64 48 8b 04 25 28 00 	mov    %fs:0x28,%rax
  401869:	00 00 
  40186b:	48 89 44 24 78       	mov    %rax,0x78(%rsp)
  401870:	31 c0                	xor    %eax,%eax
  401872:	e8 29 f5 ff ff       	callq  400da0 <random@plt>
  401877:	48 89 c1             	mov    %rax,%rcx
  40187a:	48 ba 0b d7 a3 70 3d 	movabs $0xa3d70a3d70a3d70b,%rdx
  401881:	0a d7 a3 
  401884:	48 f7 ea             	imul   %rdx
  401887:	48 01 ca             	add    %rcx,%rdx
  40188a:	48 c1 fa 06          	sar    $0x6,%rdx
  40188e:	48 89 c8             	mov    %rcx,%rax
  401891:	48 c1 f8 3f          	sar    $0x3f,%rax
  401895:	48 29 c2             	sub    %rax,%rdx
  401898:	48 8d 04 92          	lea    (%rdx,%rdx,4),%rax
  40189c:	48 8d 14 80          	lea    (%rax,%rax,4),%rdx
  4018a0:	48 8d 04 95 00 00 00 	lea    0x0(,%rdx,4),%rax
  4018a7:	00 
  4018a8:	48 29 c1             	sub    %rax,%rcx
  4018ab:	4c 8d 24 0c          	lea    (%rsp,%rcx,1),%r12
  4018af:	41 89 e8             	mov    %ebp,%r8d
  4018b2:	48 8d 0d a2 18 00 00 	lea    0x18a2(%rip),%rcx        # 40315b <_IO_stdin_used+0x2eb>
  4018b9:	48 c7 c2 ff ff ff ff 	mov    $0xffffffffffffffff,%rdx
  4018c0:	be 01 00 00 00       	mov    $0x1,%esi
  4018c5:	4c 89 e7             	mov    %r12,%rdi
  4018c8:	b8 00 00 00 00       	mov    $0x0,%eax
  4018cd:	e8 8e f5 ff ff       	callq  400e60 <__sprintf_chk@plt>
  4018d2:	ba 09 00 00 00       	mov    $0x9,%edx
  4018d7:	4c 89 e6             	mov    %r12,%rsi
  4018da:	48 89 df             	mov    %rbx,%rdi
  4018dd:	e8 be f3 ff ff       	callq  400ca0 <strncmp@plt>
  4018e2:	85 c0                	test   %eax,%eax
  4018e4:	0f 94 c0             	sete   %al
  4018e7:	48 8b 5c 24 78       	mov    0x78(%rsp),%rbx
  4018ec:	64 48 33 1c 25 28 00 	xor    %fs:0x28,%rbx
  4018f3:	00 00 
  4018f5:	75 0c                	jne    401903 <hexmatch+0xae>
  4018f7:	0f b6 c0             	movzbl %al,%eax
  4018fa:	48 83 ec 80          	sub    $0xffffffffffffff80,%rsp
  4018fe:	5b                   	pop    %rbx
  4018ff:	5d                   	pop    %rbp
  401900:	41 5c                	pop    %r12
  401902:	c3                   	retq   
  401903:	e8 d8 f3 ff ff       	callq  400ce0 <__stack_chk_fail@plt>

0000000000401908 <touch3>:
  401908:	53                   	push   %rbx
  401909:	48 89 fb             	mov    %rdi,%rbx
  40190c:	c7 05 ea 3b 20 00 03 	movl   $0x3,0x203bea(%rip)        # 605500 <vlevel>
  401913:	00 00 00 
  401916:	48 89 fe             	mov    %rdi,%rsi
  401919:	8b 3d e9 3b 20 00    	mov    0x203be9(%rip),%edi        # 605508 <cookie>
  40191f:	e8 31 ff ff ff       	callq  401855 <hexmatch>
  401924:	85 c0                	test   %eax,%eax
  401926:	74 2d                	je     401955 <touch3+0x4d>
  401928:	48 89 da             	mov    %rbx,%rdx
  40192b:	48 8d 35 7e 18 00 00 	lea    0x187e(%rip),%rsi        # 4031b0 <_IO_stdin_used+0x340>
  401932:	bf 01 00 00 00       	mov    $0x1,%edi
  401937:	b8 00 00 00 00       	mov    $0x0,%eax
  40193c:	e8 9f f4 ff ff       	callq  400de0 <__printf_chk@plt>
  401941:	bf 03 00 00 00       	mov    $0x3,%edi
  401946:	e8 6d 03 00 00       	callq  401cb8 <validate>
  40194b:	bf 00 00 00 00       	mov    $0x0,%edi
  401950:	e8 db f4 ff ff       	callq  400e30 <exit@plt>
  401955:	48 89 da             	mov    %rbx,%rdx
  401958:	48 8d 35 79 18 00 00 	lea    0x1879(%rip),%rsi        # 4031d8 <_IO_stdin_used+0x368>
  40195f:	bf 01 00 00 00       	mov    $0x1,%edi
  401964:	b8 00 00 00 00       	mov    $0x0,%eax
  401969:	e8 72 f4 ff ff       	callq  400de0 <__printf_chk@plt>
  40196e:	bf 03 00 00 00       	mov    $0x3,%edi
  401973:	e8 10 04 00 00       	callq  401d88 <fail>
  401978:	eb d1                	jmp    40194b <touch3+0x43>

000000000040197a <test>:
  40197a:	48 83 ec 08          	sub    $0x8,%rsp
  40197e:	b8 00 00 00 00       	mov    $0x0,%eax
  401983:	e8 25 fe ff ff       	callq  4017ad <getbuf>
  401988:	89 c2                	mov    %eax,%edx
  40198a:	48 8d 35 6f 18 00 00 	lea    0x186f(%rip),%rsi        # 403200 <_IO_stdin_used+0x390>
  401991:	bf 01 00 00 00       	mov    $0x1,%edi
  401996:	b8 00 00 00 00       	mov    $0x0,%eax
  40199b:	e8 40 f4 ff ff       	callq  400de0 <__printf_chk@plt>
  4019a0:	48 83 c4 08          	add    $0x8,%rsp
  4019a4:	c3                   	retq   

00000000004019a5 <start_farm>:
  4019a5:	b8 01 00 00 00       	mov    $0x1,%eax
  4019aa:	c3                   	retq   

00000000004019ab <addval_358>:
  4019ab:	8d 87 48 8b c7 90    	lea    -0x6f3874b8(%rdi),%eax
  4019b1:	c3                   	retq   

00000000004019b2 <addval_471>:
  4019b2:	8d 87 5b 48 89 c7    	lea    -0x3876b7a5(%rdi),%eax
  4019b8:	c3                   	retq   

00000000004019b9 <getval_377>:
  4019b9:	b8 58 90 c3 07       	mov    $0x7c39058,%eax
  4019be:	c3                   	retq   

00000000004019bf <addval_367>:
  4019bf:	8d 87 8e 58 c3 e8    	lea    -0x173ca772(%rdi),%eax
  4019c5:	c3                   	retq   

00000000004019c6 <getval_409>:
  4019c6:	b8 48 89 c7 90       	mov    $0x90c78948,%eax
  4019cb:	c3                   	retq   

00000000004019cc <getval_102>:
  4019cc:	b8 78 90 90 c3       	mov    $0xc3909078,%eax
  4019d1:	c3                   	retq   

00000000004019d2 <addval_184>:
  4019d2:	8d 87 d8 90 90 90    	lea    -0x6f6f6f28(%rdi),%eax
  4019d8:	c3                   	retq   

00000000004019d9 <setval_458>:
  4019d9:	c7 07 48 89 c7 92    	movl   $0x92c78948,(%rdi)
  4019df:	c3                   	retq   

00000000004019e0 <mid_farm>:
  4019e0:	b8 01 00 00 00       	mov    $0x1,%eax
  4019e5:	c3                   	retq   

00000000004019e6 <add_xy>:
  4019e6:	48 8d 04 37          	lea    (%rdi,%rsi,1),%rax
  4019ea:	c3                   	retq   

00000000004019eb <setval_125>:
  4019eb:	c7 07 a9 ce 84 c9    	movl   $0xc984cea9,(%rdi)
  4019f1:	c3                   	retq   

00000000004019f2 <addval_315>:
  4019f2:	8d 87 89 ce 08 d2    	lea    -0x2df73177(%rdi),%eax
  4019f8:	c3                   	retq   

00000000004019f9 <getval_138>:
  4019f9:	b8 48 89 e0 c2       	mov    $0xc2e08948,%eax
  4019fe:	c3                   	retq   

00000000004019ff <addval_234>:
  4019ff:	8d 87 a9 ce 90 90    	lea    -0x6f6f3157(%rdi),%eax
  401a05:	c3                   	retq   

0000000000401a06 <addval_286>:
  401a06:	8d 87 48 89 e0 94    	lea    -0x6b1f76b8(%rdi),%eax
  401a0c:	c3                   	retq   

0000000000401a0d <getval_298>:
  401a0d:	b8 8b ce 90 90       	mov    $0x9090ce8b,%eax
  401a12:	c3                   	retq   

0000000000401a13 <getval_181>:
  401a13:	b8 89 d1 90 90       	mov    $0x9090d189,%eax
  401a18:	c3                   	retq   

0000000000401a19 <setval_247>:
  401a19:	c7 07 c9 c2 84 c0    	movl   $0xc084c2c9,(%rdi)
  401a1f:	c3                   	retq   

0000000000401a20 <setval_349>:
  401a20:	c7 07 88 d1 90 c3    	movl   $0xc390d188,(%rdi)
  401a26:	c3                   	retq   

0000000000401a27 <getval_235>:
  401a27:	b8 8d d1 08 c0       	mov    $0xc008d18d,%eax
  401a2c:	c3                   	retq   

0000000000401a2d <addval_366>:
  401a2d:	8d 87 48 89 e0 c7    	lea    -0x381f76b8(%rdi),%eax
  401a33:	c3                   	retq   

0000000000401a34 <addval_346>:
  401a34:	8d 87 d1 81 d1 90    	lea    -0x6f2e7e2f(%rdi),%eax
  401a3a:	c3                   	retq   

0000000000401a3b <getval_107>:
  401a3b:	b8 89 d1 28 c0       	mov    $0xc028d189,%eax
  401a40:	c3                   	retq   

0000000000401a41 <setval_277>:
  401a41:	c7 07 4a 89 e0 90    	movl   $0x90e0894a,(%rdi)
  401a47:	c3                   	retq   

0000000000401a48 <getval_462>:
  401a48:	b8 48 89 e0 91       	mov    $0x91e08948,%eax
  401a4d:	c3                   	retq   

0000000000401a4e <getval_256>:
  401a4e:	b8 89 d1 90 c3       	mov    $0xc390d189,%eax
  401a53:	c3                   	retq   

0000000000401a54 <addval_103>:
  401a54:	8d 87 88 ce 20 c9    	lea    -0x36df3178(%rdi),%eax
  401a5a:	c3                   	retq   

0000000000401a5b <addval_289>:
  401a5b:	8d 87 89 c2 28 c0    	lea    -0x3fd73d77(%rdi),%eax
  401a61:	c3                   	retq   

0000000000401a62 <setval_208>:
  401a62:	c7 07 89 c2 78 c0    	movl   $0xc078c289,(%rdi)
  401a68:	c3                   	retq   

0000000000401a69 <getval_489>:
  401a69:	b8 89 ce 20 c9       	mov    $0xc920ce89,%eax
  401a6e:	c3                   	retq   

0000000000401a6f <getval_124>:
  401a6f:	b8 8e 11 8b c2       	mov    $0xc28b118e,%eax
  401a74:	c3                   	retq   

0000000000401a75 <addval_287>:
  401a75:	8d 87 89 c2 84 db    	lea    -0x247b3d77(%rdi),%eax
  401a7b:	c3                   	retq   

0000000000401a7c <addval_428>:
  401a7c:	8d 87 48 89 e0 c3    	lea    -0x3c1f76b8(%rdi),%eax
  401a82:	c3                   	retq   

0000000000401a83 <addval_220>:
  401a83:	8d 87 88 c2 08 db    	lea    -0x24f73d78(%rdi),%eax
  401a89:	c3                   	retq   

0000000000401a8a <addval_284>:
  401a8a:	8d 87 f8 89 ce c7    	lea    -0x38317608(%rdi),%eax
  401a90:	c3                   	retq   

0000000000401a91 <addval_463>:
  401a91:	8d 87 89 c2 84 db    	lea    -0x247b3d77(%rdi),%eax
  401a97:	c3                   	retq   

0000000000401a98 <getval_264>:
  401a98:	b8 48 89 e0 c3       	mov    $0xc3e08948,%eax
  401a9d:	c3                   	retq   

0000000000401a9e <addval_116>:
  401a9e:	8d 87 48 89 e0 c7    	lea    -0x381f76b8(%rdi),%eax
  401aa4:	c3                   	retq   

0000000000401aa5 <addval_249>:
  401aa5:	8d 87 99 d1 90 c3    	lea    -0x3c6f2e67(%rdi),%eax
  401aab:	c3                   	retq   

0000000000401aac <addval_219>:
  401aac:	8d 87 89 d1 60 db    	lea    -0x249f2e77(%rdi),%eax
  401ab2:	c3                   	retq   

0000000000401ab3 <setval_140>:
  401ab3:	c7 07 89 ce 90 c1    	movl   $0xc190ce89,(%rdi)
  401ab9:	c3                   	retq   

0000000000401aba <addval_151>:
  401aba:	8d 87 1d 89 c2 c7    	lea    -0x383d76e3(%rdi),%eax
  401ac0:	c3                   	retq   

0000000000401ac1 <end_farm>:
  401ac1:	b8 01 00 00 00       	mov    $0x1,%eax
  401ac6:	c3                   	retq   

0000000000401ac7 <save_char>:
  401ac7:	8b 05 57 46 20 00    	mov    0x204657(%rip),%eax        # 606124 <gets_cnt>
  401acd:	3d ff 03 00 00       	cmp    $0x3ff,%eax
  401ad2:	7f 4a                	jg     401b1e <save_char+0x57>
  401ad4:	89 f9                	mov    %edi,%ecx
  401ad6:	c0 e9 04             	shr    $0x4,%cl
  401ad9:	8d 14 40             	lea    (%rax,%rax,2),%edx
  401adc:	4c 8d 05 8d 19 00 00 	lea    0x198d(%rip),%r8        # 403470 <trans_char>
  401ae3:	83 e1 0f             	and    $0xf,%ecx
  401ae6:	45 0f b6 0c 08       	movzbl (%r8,%rcx,1),%r9d
  401aeb:	48 8d 0d 2e 3a 20 00 	lea    0x203a2e(%rip),%rcx        # 605520 <gets_buf>
  401af2:	48 63 f2             	movslq %edx,%rsi
  401af5:	44 88 0c 31          	mov    %r9b,(%rcx,%rsi,1)
  401af9:	8d 72 01             	lea    0x1(%rdx),%esi
  401afc:	83 e7 0f             	and    $0xf,%edi
  401aff:	41 0f b6 3c 38       	movzbl (%r8,%rdi,1),%edi
  401b04:	48 63 f6             	movslq %esi,%rsi
  401b07:	40 88 3c 31          	mov    %dil,(%rcx,%rsi,1)
  401b0b:	83 c2 02             	add    $0x2,%edx
  401b0e:	48 63 d2             	movslq %edx,%rdx
  401b11:	c6 04 11 20          	movb   $0x20,(%rcx,%rdx,1)
  401b15:	83 c0 01             	add    $0x1,%eax
  401b18:	89 05 06 46 20 00    	mov    %eax,0x204606(%rip)        # 606124 <gets_cnt>
  401b1e:	f3 c3                	repz retq 

0000000000401b20 <save_term>:
  401b20:	8b 05 fe 45 20 00    	mov    0x2045fe(%rip),%eax        # 606124 <gets_cnt>
  401b26:	8d 04 40             	lea    (%rax,%rax,2),%eax
  401b29:	48 98                	cltq   
  401b2b:	48 8d 15 ee 39 20 00 	lea    0x2039ee(%rip),%rdx        # 605520 <gets_buf>
  401b32:	c6 04 02 00          	movb   $0x0,(%rdx,%rax,1)
  401b36:	c3                   	retq   

0000000000401b37 <check_fail>:
  401b37:	48 83 ec 08          	sub    $0x8,%rsp
  401b3b:	0f be 15 e6 45 20 00 	movsbl 0x2045e6(%rip),%edx        # 606128 <target_prefix>
  401b42:	4c 8d 05 d7 39 20 00 	lea    0x2039d7(%rip),%r8        # 605520 <gets_buf>
  401b49:	8b 0d ad 39 20 00    	mov    0x2039ad(%rip),%ecx        # 6054fc <check_level>
  401b4f:	48 8d 35 cd 16 00 00 	lea    0x16cd(%rip),%rsi        # 403223 <_IO_stdin_used+0x3b3>
  401b56:	bf 01 00 00 00       	mov    $0x1,%edi
  401b5b:	b8 00 00 00 00       	mov    $0x0,%eax
  401b60:	e8 7b f2 ff ff       	callq  400de0 <__printf_chk@plt>
  401b65:	bf 01 00 00 00       	mov    $0x1,%edi
  401b6a:	e8 c1 f2 ff ff       	callq  400e30 <exit@plt>

0000000000401b6f <Gets>:
  401b6f:	41 54                	push   %r12
  401b71:	55                   	push   %rbp
  401b72:	53                   	push   %rbx
  401b73:	49 89 fc             	mov    %rdi,%r12
  401b76:	c7 05 a4 45 20 00 00 	movl   $0x0,0x2045a4(%rip)        # 606124 <gets_cnt>
  401b7d:	00 00 00 
  401b80:	48 89 fb             	mov    %rdi,%rbx
  401b83:	eb 11                	jmp    401b96 <Gets+0x27>
  401b85:	48 8d 6b 01          	lea    0x1(%rbx),%rbp
  401b89:	88 03                	mov    %al,(%rbx)
  401b8b:	0f b6 f8             	movzbl %al,%edi
  401b8e:	e8 34 ff ff ff       	callq  401ac7 <save_char>
  401b93:	48 89 eb             	mov    %rbp,%rbx
  401b96:	48 8b 3d 53 39 20 00 	mov    0x203953(%rip),%rdi        # 6054f0 <infile>
  401b9d:	e8 0e f2 ff ff       	callq  400db0 <_IO_getc@plt>
  401ba2:	83 f8 ff             	cmp    $0xffffffff,%eax
  401ba5:	74 05                	je     401bac <Gets+0x3d>
  401ba7:	83 f8 0a             	cmp    $0xa,%eax
  401baa:	75 d9                	jne    401b85 <Gets+0x16>
  401bac:	c6 03 00             	movb   $0x0,(%rbx)
  401baf:	b8 00 00 00 00       	mov    $0x0,%eax
  401bb4:	e8 67 ff ff ff       	callq  401b20 <save_term>
  401bb9:	4c 89 e0             	mov    %r12,%rax
  401bbc:	5b                   	pop    %rbx
  401bbd:	5d                   	pop    %rbp
  401bbe:	41 5c                	pop    %r12
  401bc0:	c3                   	retq   

0000000000401bc1 <notify_server>:
  401bc1:	53                   	push   %rbx
  401bc2:	48 81 ec 10 20 00 00 	sub    $0x2010,%rsp
  401bc9:	64 48 8b 04 25 28 00 	mov    %fs:0x28,%rax
  401bd0:	00 00 
  401bd2:	48 89 84 24 08 20 00 	mov    %rax,0x2008(%rsp)
  401bd9:	00 
  401bda:	31 c0                	xor    %eax,%eax
  401bdc:	83 3d 29 39 20 00 00 	cmpl   $0x0,0x203929(%rip)        # 60550c <is_checker>
  401be3:	75 7c                	jne    401c61 <notify_server+0xa0>
  401be5:	8b 05 39 45 20 00    	mov    0x204539(%rip),%eax        # 606124 <gets_cnt>
  401beb:	83 c0 64             	add    $0x64,%eax
  401bee:	3d 00 20 00 00       	cmp    $0x2000,%eax
  401bf3:	0f 8f 84 00 00 00    	jg     401c7d <notify_server+0xbc>
  401bf9:	0f be 05 28 45 20 00 	movsbl 0x204528(%rip),%eax        # 606128 <target_prefix>
  401c00:	83 3d f1 38 20 00 00 	cmpl   $0x0,0x2038f1(%rip)        # 6054f8 <notify>
  401c07:	0f 84 90 00 00 00    	je     401c9d <notify_server+0xdc>
  401c0d:	8b 15 f1 38 20 00    	mov    0x2038f1(%rip),%edx        # 605504 <authkey>
  401c13:	85 ff                	test   %edi,%edi
  401c15:	0f 85 8c 00 00 00    	jne    401ca7 <notify_server+0xe6>
  401c1b:	48 8d 1d 1c 16 00 00 	lea    0x161c(%rip),%rbx        # 40323e <_IO_stdin_used+0x3ce>
  401c22:	48 89 e7             	mov    %rsp,%rdi
  401c25:	48 8d 0d f4 38 20 00 	lea    0x2038f4(%rip),%rcx        # 605520 <gets_buf>
  401c2c:	51                   	push   %rcx
  401c2d:	56                   	push   %rsi
  401c2e:	50                   	push   %rax
  401c2f:	52                   	push   %rdx
  401c30:	49 89 d9             	mov    %rbx,%r9
  401c33:	44 8b 05 f6 34 20 00 	mov    0x2034f6(%rip),%r8d        # 605130 <target_id>
  401c3a:	48 8d 0d 02 16 00 00 	lea    0x1602(%rip),%rcx        # 403243 <_IO_stdin_used+0x3d3>
  401c41:	ba 00 20 00 00       	mov    $0x2000,%edx
  401c46:	be 01 00 00 00       	mov    $0x1,%esi
  401c4b:	b8 00 00 00 00       	mov    $0x0,%eax
  401c50:	e8 0b f2 ff ff       	callq  400e60 <__sprintf_chk@plt>
  401c55:	48 83 c4 20          	add    $0x20,%rsp
  401c59:	48 89 df             	mov    %rbx,%rdi
  401c5c:	e8 5f f0 ff ff       	callq  400cc0 <puts@plt>
  401c61:	48 8b 84 24 08 20 00 	mov    0x2008(%rsp),%rax
  401c68:	00 
  401c69:	64 48 33 04 25 28 00 	xor    %fs:0x28,%rax
  401c70:	00 00 
  401c72:	75 3f                	jne    401cb3 <notify_server+0xf2>
  401c74:	48 81 c4 10 20 00 00 	add    $0x2010,%rsp
  401c7b:	5b                   	pop    %rbx
  401c7c:	c3                   	retq   
  401c7d:	48 8d 35 84 16 00 00 	lea    0x1684(%rip),%rsi        # 403308 <_IO_stdin_used+0x498>
  401c84:	bf 01 00 00 00       	mov    $0x1,%edi
  401c89:	b8 00 00 00 00       	mov    $0x0,%eax
  401c8e:	e8 4d f1 ff ff       	callq  400de0 <__printf_chk@plt>
  401c93:	bf 01 00 00 00       	mov    $0x1,%edi
  401c98:	e8 93 f1 ff ff       	callq  400e30 <exit@plt>
  401c9d:	ba ff ff ff ff       	mov    $0xffffffff,%edx
  401ca2:	e9 6c ff ff ff       	jmpq   401c13 <notify_server+0x52>
  401ca7:	48 8d 1d 8b 15 00 00 	lea    0x158b(%rip),%rbx        # 403239 <_IO_stdin_used+0x3c9>
  401cae:	e9 6f ff ff ff       	jmpq   401c22 <notify_server+0x61>
  401cb3:	e8 28 f0 ff ff       	callq  400ce0 <__stack_chk_fail@plt>

0000000000401cb8 <validate>:
  401cb8:	53                   	push   %rbx
  401cb9:	89 fb                	mov    %edi,%ebx
  401cbb:	83 3d 4a 38 20 00 00 	cmpl   $0x0,0x20384a(%rip)        # 60550c <is_checker>
  401cc2:	74 72                	je     401d36 <validate+0x7e>
  401cc4:	39 3d 36 38 20 00    	cmp    %edi,0x203836(%rip)        # 605500 <vlevel>
  401cca:	75 32                	jne    401cfe <validate+0x46>
  401ccc:	8b 15 2a 38 20 00    	mov    0x20382a(%rip),%edx        # 6054fc <check_level>
  401cd2:	39 fa                	cmp    %edi,%edx
  401cd4:	75 3e                	jne    401d14 <validate+0x5c>
  401cd6:	0f be 15 4b 44 20 00 	movsbl 0x20444b(%rip),%edx        # 606128 <target_prefix>
  401cdd:	4c 8d 05 3c 38 20 00 	lea    0x20383c(%rip),%r8        # 605520 <gets_buf>
  401ce4:	89 f9                	mov    %edi,%ecx
  401ce6:	48 8d 35 90 15 00 00 	lea    0x1590(%rip),%rsi        # 40327d <_IO_stdin_used+0x40d>
  401ced:	bf 01 00 00 00       	mov    $0x1,%edi
  401cf2:	b8 00 00 00 00       	mov    $0x0,%eax
  401cf7:	e8 e4 f0 ff ff       	callq  400de0 <__printf_chk@plt>
  401cfc:	5b                   	pop    %rbx
  401cfd:	c3                   	retq   
  401cfe:	48 8d 3d 5a 15 00 00 	lea    0x155a(%rip),%rdi        # 40325f <_IO_stdin_used+0x3ef>
  401d05:	e8 b6 ef ff ff       	callq  400cc0 <puts@plt>
  401d0a:	b8 00 00 00 00       	mov    $0x0,%eax
  401d0f:	e8 23 fe ff ff       	callq  401b37 <check_fail>
  401d14:	89 f9                	mov    %edi,%ecx
  401d16:	48 8d 35 1b 16 00 00 	lea    0x161b(%rip),%rsi        # 403338 <_IO_stdin_used+0x4c8>
  401d1d:	bf 01 00 00 00       	mov    $0x1,%edi
  401d22:	b8 00 00 00 00       	mov    $0x0,%eax
  401d27:	e8 b4 f0 ff ff       	callq  400de0 <__printf_chk@plt>
  401d2c:	b8 00 00 00 00       	mov    $0x0,%eax
  401d31:	e8 01 fe ff ff       	callq  401b37 <check_fail>
  401d36:	39 3d c4 37 20 00    	cmp    %edi,0x2037c4(%rip)        # 605500 <vlevel>
  401d3c:	74 1a                	je     401d58 <validate+0xa0>
  401d3e:	48 8d 3d 1a 15 00 00 	lea    0x151a(%rip),%rdi        # 40325f <_IO_stdin_used+0x3ef>
  401d45:	e8 76 ef ff ff       	callq  400cc0 <puts@plt>
  401d4a:	89 de                	mov    %ebx,%esi
  401d4c:	bf 00 00 00 00       	mov    $0x0,%edi
  401d51:	e8 6b fe ff ff       	callq  401bc1 <notify_server>
  401d56:	eb a4                	jmp    401cfc <validate+0x44>
  401d58:	0f be 0d c9 43 20 00 	movsbl 0x2043c9(%rip),%ecx        # 606128 <target_prefix>
  401d5f:	89 fa                	mov    %edi,%edx
  401d61:	48 8d 35 f8 15 00 00 	lea    0x15f8(%rip),%rsi        # 403360 <_IO_stdin_used+0x4f0>
  401d68:	bf 01 00 00 00       	mov    $0x1,%edi
  401d6d:	b8 00 00 00 00       	mov    $0x0,%eax
  401d72:	e8 69 f0 ff ff       	callq  400de0 <__printf_chk@plt>
  401d77:	89 de                	mov    %ebx,%esi
  401d79:	bf 01 00 00 00       	mov    $0x1,%edi
  401d7e:	e8 3e fe ff ff       	callq  401bc1 <notify_server>
  401d83:	e9 74 ff ff ff       	jmpq   401cfc <validate+0x44>

0000000000401d88 <fail>:
  401d88:	48 83 ec 08          	sub    $0x8,%rsp
  401d8c:	83 3d 79 37 20 00 00 	cmpl   $0x0,0x203779(%rip)        # 60550c <is_checker>
  401d93:	75 11                	jne    401da6 <fail+0x1e>
  401d95:	89 fe                	mov    %edi,%esi
  401d97:	bf 00 00 00 00       	mov    $0x0,%edi
  401d9c:	e8 20 fe ff ff       	callq  401bc1 <notify_server>
  401da1:	48 83 c4 08          	add    $0x8,%rsp
  401da5:	c3                   	retq   
  401da6:	b8 00 00 00 00       	mov    $0x0,%eax
  401dab:	e8 87 fd ff ff       	callq  401b37 <check_fail>

0000000000401db0 <bushandler>:
  401db0:	48 83 ec 08          	sub    $0x8,%rsp
  401db4:	83 3d 51 37 20 00 00 	cmpl   $0x0,0x203751(%rip)        # 60550c <is_checker>
  401dbb:	74 16                	je     401dd3 <bushandler+0x23>
  401dbd:	48 8d 3d ce 14 00 00 	lea    0x14ce(%rip),%rdi        # 403292 <_IO_stdin_used+0x422>
  401dc4:	e8 f7 ee ff ff       	callq  400cc0 <puts@plt>
  401dc9:	b8 00 00 00 00       	mov    $0x0,%eax
  401dce:	e8 64 fd ff ff       	callq  401b37 <check_fail>
  401dd3:	48 8d 3d be 15 00 00 	lea    0x15be(%rip),%rdi        # 403398 <_IO_stdin_used+0x528>
  401dda:	e8 e1 ee ff ff       	callq  400cc0 <puts@plt>
  401ddf:	48 8d 3d b6 14 00 00 	lea    0x14b6(%rip),%rdi        # 40329c <_IO_stdin_used+0x42c>
  401de6:	e8 d5 ee ff ff       	callq  400cc0 <puts@plt>
  401deb:	be 00 00 00 00       	mov    $0x0,%esi
  401df0:	bf 00 00 00 00       	mov    $0x0,%edi
  401df5:	e8 c7 fd ff ff       	callq  401bc1 <notify_server>
  401dfa:	bf 01 00 00 00       	mov    $0x1,%edi
  401dff:	e8 2c f0 ff ff       	callq  400e30 <exit@plt>

0000000000401e04 <seghandler>:
  401e04:	48 83 ec 08          	sub    $0x8,%rsp
  401e08:	83 3d fd 36 20 00 00 	cmpl   $0x0,0x2036fd(%rip)        # 60550c <is_checker>
  401e0f:	74 16                	je     401e27 <seghandler+0x23>
  401e11:	48 8d 3d 9a 14 00 00 	lea    0x149a(%rip),%rdi        # 4032b2 <_IO_stdin_used+0x442>
  401e18:	e8 a3 ee ff ff       	callq  400cc0 <puts@plt>
  401e1d:	b8 00 00 00 00       	mov    $0x0,%eax
  401e22:	e8 10 fd ff ff       	callq  401b37 <check_fail>
  401e27:	48 8d 3d 8a 15 00 00 	lea    0x158a(%rip),%rdi        # 4033b8 <_IO_stdin_used+0x548>
  401e2e:	e8 8d ee ff ff       	callq  400cc0 <puts@plt>
  401e33:	48 8d 3d 62 14 00 00 	lea    0x1462(%rip),%rdi        # 40329c <_IO_stdin_used+0x42c>
  401e3a:	e8 81 ee ff ff       	callq  400cc0 <puts@plt>
  401e3f:	be 00 00 00 00       	mov    $0x0,%esi
  401e44:	bf 00 00 00 00       	mov    $0x0,%edi
  401e49:	e8 73 fd ff ff       	callq  401bc1 <notify_server>
  401e4e:	bf 01 00 00 00       	mov    $0x1,%edi
  401e53:	e8 d8 ef ff ff       	callq  400e30 <exit@plt>

0000000000401e58 <illegalhandler>:
  401e58:	48 83 ec 08          	sub    $0x8,%rsp
  401e5c:	83 3d a9 36 20 00 00 	cmpl   $0x0,0x2036a9(%rip)        # 60550c <is_checker>
  401e63:	74 16                	je     401e7b <illegalhandler+0x23>
  401e65:	48 8d 3d 59 14 00 00 	lea    0x1459(%rip),%rdi        # 4032c5 <_IO_stdin_used+0x455>
  401e6c:	e8 4f ee ff ff       	callq  400cc0 <puts@plt>
  401e71:	b8 00 00 00 00       	mov    $0x0,%eax
  401e76:	e8 bc fc ff ff       	callq  401b37 <check_fail>
  401e7b:	48 8d 3d 5e 15 00 00 	lea    0x155e(%rip),%rdi        # 4033e0 <_IO_stdin_used+0x570>
  401e82:	e8 39 ee ff ff       	callq  400cc0 <puts@plt>
  401e87:	48 8d 3d 0e 14 00 00 	lea    0x140e(%rip),%rdi        # 40329c <_IO_stdin_used+0x42c>
  401e8e:	e8 2d ee ff ff       	callq  400cc0 <puts@plt>
  401e93:	be 00 00 00 00       	mov    $0x0,%esi
  401e98:	bf 00 00 00 00       	mov    $0x0,%edi
  401e9d:	e8 1f fd ff ff       	callq  401bc1 <notify_server>
  401ea2:	bf 01 00 00 00       	mov    $0x1,%edi
  401ea7:	e8 84 ef ff ff       	callq  400e30 <exit@plt>

0000000000401eac <sigalrmhandler>:
  401eac:	48 83 ec 08          	sub    $0x8,%rsp
  401eb0:	83 3d 55 36 20 00 00 	cmpl   $0x0,0x203655(%rip)        # 60550c <is_checker>
  401eb7:	74 16                	je     401ecf <sigalrmhandler+0x23>
  401eb9:	48 8d 3d 19 14 00 00 	lea    0x1419(%rip),%rdi        # 4032d9 <_IO_stdin_used+0x469>
  401ec0:	e8 fb ed ff ff       	callq  400cc0 <puts@plt>
  401ec5:	b8 00 00 00 00       	mov    $0x0,%eax
  401eca:	e8 68 fc ff ff       	callq  401b37 <check_fail>
  401ecf:	ba 05 00 00 00       	mov    $0x5,%edx
  401ed4:	48 8d 35 35 15 00 00 	lea    0x1535(%rip),%rsi        # 403410 <_IO_stdin_used+0x5a0>
  401edb:	bf 01 00 00 00       	mov    $0x1,%edi
  401ee0:	b8 00 00 00 00       	mov    $0x0,%eax
  401ee5:	e8 f6 ee ff ff       	callq  400de0 <__printf_chk@plt>
  401eea:	be 00 00 00 00       	mov    $0x0,%esi
  401eef:	bf 00 00 00 00       	mov    $0x0,%edi
  401ef4:	e8 c8 fc ff ff       	callq  401bc1 <notify_server>
  401ef9:	bf 01 00 00 00       	mov    $0x1,%edi
  401efe:	e8 2d ef ff ff       	callq  400e30 <exit@plt>

0000000000401f03 <launch>:
  401f03:	55                   	push   %rbp
  401f04:	48 89 e5             	mov    %rsp,%rbp
  401f07:	48 83 ec 10          	sub    $0x10,%rsp
  401f0b:	48 89 fa             	mov    %rdi,%rdx
  401f0e:	64 48 8b 04 25 28 00 	mov    %fs:0x28,%rax
  401f15:	00 00 
  401f17:	48 89 45 f8          	mov    %rax,-0x8(%rbp)
  401f1b:	31 c0                	xor    %eax,%eax
  401f1d:	48 8d 47 1e          	lea    0x1e(%rdi),%rax
  401f21:	48 83 e0 f0          	and    $0xfffffffffffffff0,%rax
  401f25:	48 29 c4             	sub    %rax,%rsp
  401f28:	48 8d 7c 24 0f       	lea    0xf(%rsp),%rdi
  401f2d:	48 83 e7 f0          	and    $0xfffffffffffffff0,%rdi
  401f31:	be f4 00 00 00       	mov    $0xf4,%esi
  401f36:	e8 c5 ed ff ff       	callq  400d00 <memset@plt>
  401f3b:	48 8b 05 5e 35 20 00 	mov    0x20355e(%rip),%rax        # 6054a0 <stdin@@GLIBC_2.2.5>
  401f42:	48 39 05 a7 35 20 00 	cmp    %rax,0x2035a7(%rip)        # 6054f0 <infile>
  401f49:	74 3a                	je     401f85 <launch+0x82>
  401f4b:	c7 05 ab 35 20 00 00 	movl   $0x0,0x2035ab(%rip)        # 605500 <vlevel>
  401f52:	00 00 00 
  401f55:	b8 00 00 00 00       	mov    $0x0,%eax
  401f5a:	e8 1b fa ff ff       	callq  40197a <test>
  401f5f:	83 3d a6 35 20 00 00 	cmpl   $0x0,0x2035a6(%rip)        # 60550c <is_checker>
  401f66:	75 35                	jne    401f9d <launch+0x9a>
  401f68:	48 8d 3d 8a 13 00 00 	lea    0x138a(%rip),%rdi        # 4032f9 <_IO_stdin_used+0x489>
  401f6f:	e8 4c ed ff ff       	callq  400cc0 <puts@plt>
  401f74:	48 8b 45 f8          	mov    -0x8(%rbp),%rax
  401f78:	64 48 33 04 25 28 00 	xor    %fs:0x28,%rax
  401f7f:	00 00 
  401f81:	75 30                	jne    401fb3 <launch+0xb0>
  401f83:	c9                   	leaveq 
  401f84:	c3                   	retq   
  401f85:	48 8d 35 55 13 00 00 	lea    0x1355(%rip),%rsi        # 4032e1 <_IO_stdin_used+0x471>
  401f8c:	bf 01 00 00 00       	mov    $0x1,%edi
  401f91:	b8 00 00 00 00       	mov    $0x0,%eax
  401f96:	e8 45 ee ff ff       	callq  400de0 <__printf_chk@plt>
  401f9b:	eb ae                	jmp    401f4b <launch+0x48>
  401f9d:	48 8d 3d 4a 13 00 00 	lea    0x134a(%rip),%rdi        # 4032ee <_IO_stdin_used+0x47e>
  401fa4:	e8 17 ed ff ff       	callq  400cc0 <puts@plt>
  401fa9:	b8 00 00 00 00       	mov    $0x0,%eax
  401fae:	e8 84 fb ff ff       	callq  401b37 <check_fail>
  401fb3:	e8 28 ed ff ff       	callq  400ce0 <__stack_chk_fail@plt>

0000000000401fb8 <stable_launch>:
  401fb8:	53                   	push   %rbx
  401fb9:	48 89 3d 28 35 20 00 	mov    %rdi,0x203528(%rip)        # 6054e8 <global_offset>
  401fc0:	41 b9 00 00 00 00    	mov    $0x0,%r9d
  401fc6:	41 b8 00 00 00 00    	mov    $0x0,%r8d
  401fcc:	b9 32 01 00 00       	mov    $0x132,%ecx
  401fd1:	ba 07 00 00 00       	mov    $0x7,%edx
  401fd6:	be 00 00 10 00       	mov    $0x100000,%esi
  401fdb:	bf 00 60 58 55       	mov    $0x55586000,%edi
  401fe0:	e8 0b ed ff ff       	callq  400cf0 <mmap@plt>
  401fe5:	48 89 c3             	mov    %rax,%rbx
  401fe8:	48 3d 00 60 58 55    	cmp    $0x55586000,%rax
  401fee:	75 43                	jne    402033 <stable_launch+0x7b>
  401ff0:	48 8d 90 f8 ff 0f 00 	lea    0xffff8(%rax),%rdx
  401ff7:	48 89 15 32 41 20 00 	mov    %rdx,0x204132(%rip)        # 606130 <stack_top>
  401ffe:	48 89 e0             	mov    %rsp,%rax
  402001:	48 89 d4             	mov    %rdx,%rsp
  402004:	48 89 c2             	mov    %rax,%rdx
  402007:	48 89 15 d2 34 20 00 	mov    %rdx,0x2034d2(%rip)        # 6054e0 <global_save_stack>
  40200e:	48 8b 3d d3 34 20 00 	mov    0x2034d3(%rip),%rdi        # 6054e8 <global_offset>
  402015:	e8 e9 fe ff ff       	callq  401f03 <launch>
  40201a:	48 8b 05 bf 34 20 00 	mov    0x2034bf(%rip),%rax        # 6054e0 <global_save_stack>
  402021:	48 89 c4             	mov    %rax,%rsp
  402024:	be 00 00 10 00       	mov    $0x100000,%esi
  402029:	48 89 df             	mov    %rbx,%rdi
  40202c:	e8 9f ed ff ff       	callq  400dd0 <munmap@plt>
  402031:	5b                   	pop    %rbx
  402032:	c3                   	retq   
  402033:	be 00 00 10 00       	mov    $0x100000,%esi
  402038:	48 89 c7             	mov    %rax,%rdi
  40203b:	e8 90 ed ff ff       	callq  400dd0 <munmap@plt>
  402040:	b9 00 60 58 55       	mov    $0x55586000,%ecx
  402045:	48 8d 15 fc 13 00 00 	lea    0x13fc(%rip),%rdx        # 403448 <_IO_stdin_used+0x5d8>
  40204c:	be 01 00 00 00       	mov    $0x1,%esi
  402051:	48 8b 3d 68 34 20 00 	mov    0x203468(%rip),%rdi        # 6054c0 <stderr@@GLIBC_2.2.5>
  402058:	b8 00 00 00 00       	mov    $0x0,%eax
  40205d:	e8 ee ed ff ff       	callq  400e50 <__fprintf_chk@plt>
  402062:	bf 01 00 00 00       	mov    $0x1,%edi
  402067:	e8 c4 ed ff ff       	callq  400e30 <exit@plt>

000000000040206c <rio_readinitb>:
  40206c:	89 37                	mov    %esi,(%rdi)
  40206e:	c7 47 04 00 00 00 00 	movl   $0x0,0x4(%rdi)
  402075:	48 8d 47 10          	lea    0x10(%rdi),%rax
  402079:	48 89 47 08          	mov    %rax,0x8(%rdi)
  40207d:	c3                   	retq   

000000000040207e <sigalrm_handler>:
  40207e:	48 83 ec 08          	sub    $0x8,%rsp
  402082:	b9 00 00 00 00       	mov    $0x0,%ecx
  402087:	48 8d 15 f2 13 00 00 	lea    0x13f2(%rip),%rdx        # 403480 <trans_char+0x10>
  40208e:	be 01 00 00 00       	mov    $0x1,%esi
  402093:	48 8b 3d 26 34 20 00 	mov    0x203426(%rip),%rdi        # 6054c0 <stderr@@GLIBC_2.2.5>
  40209a:	b8 00 00 00 00       	mov    $0x0,%eax
  40209f:	e8 ac ed ff ff       	callq  400e50 <__fprintf_chk@plt>
  4020a4:	bf 01 00 00 00       	mov    $0x1,%edi
  4020a9:	e8 82 ed ff ff       	callq  400e30 <exit@plt>

00000000004020ae <rio_writen>:
  4020ae:	41 55                	push   %r13
  4020b0:	41 54                	push   %r12
  4020b2:	55                   	push   %rbp
  4020b3:	53                   	push   %rbx
  4020b4:	48 83 ec 08          	sub    $0x8,%rsp
  4020b8:	41 89 fc             	mov    %edi,%r12d
  4020bb:	48 89 f5             	mov    %rsi,%rbp
  4020be:	49 89 d5             	mov    %rdx,%r13
  4020c1:	48 89 d3             	mov    %rdx,%rbx
  4020c4:	eb 06                	jmp    4020cc <rio_writen+0x1e>
  4020c6:	48 29 c3             	sub    %rax,%rbx
  4020c9:	48 01 c5             	add    %rax,%rbp
  4020cc:	48 85 db             	test   %rbx,%rbx
  4020cf:	74 24                	je     4020f5 <rio_writen+0x47>
  4020d1:	48 89 da             	mov    %rbx,%rdx
  4020d4:	48 89 ee             	mov    %rbp,%rsi
  4020d7:	44 89 e7             	mov    %r12d,%edi
  4020da:	e8 f1 eb ff ff       	callq  400cd0 <write@plt>
  4020df:	48 85 c0             	test   %rax,%rax
  4020e2:	7f e2                	jg     4020c6 <rio_writen+0x18>
  4020e4:	e8 97 eb ff ff       	callq  400c80 <__errno_location@plt>
  4020e9:	83 38 04             	cmpl   $0x4,(%rax)
  4020ec:	75 15                	jne    402103 <rio_writen+0x55>
  4020ee:	b8 00 00 00 00       	mov    $0x0,%eax
  4020f3:	eb d1                	jmp    4020c6 <rio_writen+0x18>
  4020f5:	4c 89 e8             	mov    %r13,%rax
  4020f8:	48 83 c4 08          	add    $0x8,%rsp
  4020fc:	5b                   	pop    %rbx
  4020fd:	5d                   	pop    %rbp
  4020fe:	41 5c                	pop    %r12
  402100:	41 5d                	pop    %r13
  402102:	c3                   	retq   
  402103:	48 c7 c0 ff ff ff ff 	mov    $0xffffffffffffffff,%rax
  40210a:	eb ec                	jmp    4020f8 <rio_writen+0x4a>

000000000040210c <rio_read>:
  40210c:	41 55                	push   %r13
  40210e:	41 54                	push   %r12
  402110:	55                   	push   %rbp
  402111:	53                   	push   %rbx
  402112:	48 83 ec 08          	sub    $0x8,%rsp
  402116:	48 89 fb             	mov    %rdi,%rbx
  402119:	49 89 f5             	mov    %rsi,%r13
  40211c:	49 89 d4             	mov    %rdx,%r12
  40211f:	eb 0a                	jmp    40212b <rio_read+0x1f>
  402121:	e8 5a eb ff ff       	callq  400c80 <__errno_location@plt>
  402126:	83 38 04             	cmpl   $0x4,(%rax)
  402129:	75 5c                	jne    402187 <rio_read+0x7b>
  40212b:	8b 6b 04             	mov    0x4(%rbx),%ebp
  40212e:	85 ed                	test   %ebp,%ebp
  402130:	7f 24                	jg     402156 <rio_read+0x4a>
  402132:	48 8d 6b 10          	lea    0x10(%rbx),%rbp
  402136:	8b 3b                	mov    (%rbx),%edi
  402138:	ba 00 20 00 00       	mov    $0x2000,%edx
  40213d:	48 89 ee             	mov    %rbp,%rsi
  402140:	e8 eb eb ff ff       	callq  400d30 <read@plt>
  402145:	89 43 04             	mov    %eax,0x4(%rbx)
  402148:	85 c0                	test   %eax,%eax
  40214a:	78 d5                	js     402121 <rio_read+0x15>
  40214c:	85 c0                	test   %eax,%eax
  40214e:	74 40                	je     402190 <rio_read+0x84>
  402150:	48 89 6b 08          	mov    %rbp,0x8(%rbx)
  402154:	eb d5                	jmp    40212b <rio_read+0x1f>
  402156:	89 e8                	mov    %ebp,%eax
  402158:	4c 39 e0             	cmp    %r12,%rax
  40215b:	72 03                	jb     402160 <rio_read+0x54>
  40215d:	44 89 e5             	mov    %r12d,%ebp
  402160:	4c 63 e5             	movslq %ebp,%r12
  402163:	48 8b 73 08          	mov    0x8(%rbx),%rsi
  402167:	4c 89 e2             	mov    %r12,%rdx
  40216a:	4c 89 ef             	mov    %r13,%rdi
  40216d:	e8 0e ec ff ff       	callq  400d80 <memcpy@plt>
  402172:	4c 01 63 08          	add    %r12,0x8(%rbx)
  402176:	29 6b 04             	sub    %ebp,0x4(%rbx)
  402179:	4c 89 e0             	mov    %r12,%rax
  40217c:	48 83 c4 08          	add    $0x8,%rsp
  402180:	5b                   	pop    %rbx
  402181:	5d                   	pop    %rbp
  402182:	41 5c                	pop    %r12
  402184:	41 5d                	pop    %r13
  402186:	c3                   	retq   
  402187:	48 c7 c0 ff ff ff ff 	mov    $0xffffffffffffffff,%rax
  40218e:	eb ec                	jmp    40217c <rio_read+0x70>
  402190:	b8 00 00 00 00       	mov    $0x0,%eax
  402195:	eb e5                	jmp    40217c <rio_read+0x70>

0000000000402197 <rio_readlineb>:
  402197:	41 55                	push   %r13
  402199:	41 54                	push   %r12
  40219b:	55                   	push   %rbp
  40219c:	53                   	push   %rbx
  40219d:	48 83 ec 18          	sub    $0x18,%rsp
  4021a1:	49 89 fd             	mov    %rdi,%r13
  4021a4:	48 89 f5             	mov    %rsi,%rbp
  4021a7:	49 89 d4             	mov    %rdx,%r12
  4021aa:	64 48 8b 04 25 28 00 	mov    %fs:0x28,%rax
  4021b1:	00 00 
  4021b3:	48 89 44 24 08       	mov    %rax,0x8(%rsp)
  4021b8:	31 c0                	xor    %eax,%eax
  4021ba:	bb 01 00 00 00       	mov    $0x1,%ebx
  4021bf:	4c 39 e3             	cmp    %r12,%rbx
  4021c2:	73 47                	jae    40220b <rio_readlineb+0x74>
  4021c4:	48 8d 74 24 07       	lea    0x7(%rsp),%rsi
  4021c9:	ba 01 00 00 00       	mov    $0x1,%edx
  4021ce:	4c 89 ef             	mov    %r13,%rdi
  4021d1:	e8 36 ff ff ff       	callq  40210c <rio_read>
  4021d6:	83 f8 01             	cmp    $0x1,%eax
  4021d9:	75 1c                	jne    4021f7 <rio_readlineb+0x60>
  4021db:	48 8d 45 01          	lea    0x1(%rbp),%rax
  4021df:	0f b6 54 24 07       	movzbl 0x7(%rsp),%edx
  4021e4:	88 55 00             	mov    %dl,0x0(%rbp)
  4021e7:	80 7c 24 07 0a       	cmpb   $0xa,0x7(%rsp)
  4021ec:	74 1a                	je     402208 <rio_readlineb+0x71>
  4021ee:	48 83 c3 01          	add    $0x1,%rbx
  4021f2:	48 89 c5             	mov    %rax,%rbp
  4021f5:	eb c8                	jmp    4021bf <rio_readlineb+0x28>
  4021f7:	85 c0                	test   %eax,%eax
  4021f9:	75 32                	jne    40222d <rio_readlineb+0x96>
  4021fb:	48 83 fb 01          	cmp    $0x1,%rbx
  4021ff:	75 0a                	jne    40220b <rio_readlineb+0x74>
  402201:	b8 00 00 00 00       	mov    $0x0,%eax
  402206:	eb 0a                	jmp    402212 <rio_readlineb+0x7b>
  402208:	48 89 c5             	mov    %rax,%rbp
  40220b:	c6 45 00 00          	movb   $0x0,0x0(%rbp)
  40220f:	48 89 d8             	mov    %rbx,%rax
  402212:	48 8b 4c 24 08       	mov    0x8(%rsp),%rcx
  402217:	64 48 33 0c 25 28 00 	xor    %fs:0x28,%rcx
  40221e:	00 00 
  402220:	75 14                	jne    402236 <rio_readlineb+0x9f>
  402222:	48 83 c4 18          	add    $0x18,%rsp
  402226:	5b                   	pop    %rbx
  402227:	5d                   	pop    %rbp
  402228:	41 5c                	pop    %r12
  40222a:	41 5d                	pop    %r13
  40222c:	c3                   	retq   
  40222d:	48 c7 c0 ff ff ff ff 	mov    $0xffffffffffffffff,%rax
  402234:	eb dc                	jmp    402212 <rio_readlineb+0x7b>
  402236:	e8 a5 ea ff ff       	callq  400ce0 <__stack_chk_fail@plt>

000000000040223b <urlencode>:
  40223b:	41 54                	push   %r12
  40223d:	55                   	push   %rbp
  40223e:	53                   	push   %rbx
  40223f:	48 83 ec 10          	sub    $0x10,%rsp
  402243:	48 89 fb             	mov    %rdi,%rbx
  402246:	48 89 f5             	mov    %rsi,%rbp
  402249:	64 48 8b 04 25 28 00 	mov    %fs:0x28,%rax
  402250:	00 00 
  402252:	48 89 44 24 08       	mov    %rax,0x8(%rsp)
  402257:	31 c0                	xor    %eax,%eax
  402259:	48 c7 c1 ff ff ff ff 	mov    $0xffffffffffffffff,%rcx
  402260:	f2 ae                	repnz scas %es:(%rdi),%al
  402262:	48 89 ce             	mov    %rcx,%rsi
  402265:	48 f7 d6             	not    %rsi
  402268:	8d 46 ff             	lea    -0x1(%rsi),%eax
  40226b:	eb 0f                	jmp    40227c <urlencode+0x41>
  40226d:	44 88 45 00          	mov    %r8b,0x0(%rbp)
  402271:	48 8d 6d 01          	lea    0x1(%rbp),%rbp
  402275:	48 83 c3 01          	add    $0x1,%rbx
  402279:	44 89 e0             	mov    %r12d,%eax
  40227c:	44 8d 60 ff          	lea    -0x1(%rax),%r12d
  402280:	85 c0                	test   %eax,%eax
  402282:	0f 84 a8 00 00 00    	je     402330 <urlencode+0xf5>
  402288:	44 0f b6 03          	movzbl (%rbx),%r8d
  40228c:	41 80 f8 2a          	cmp    $0x2a,%r8b
  402290:	0f 94 c2             	sete   %dl
  402293:	41 80 f8 2d          	cmp    $0x2d,%r8b
  402297:	0f 94 c0             	sete   %al
  40229a:	08 c2                	or     %al,%dl
  40229c:	75 cf                	jne    40226d <urlencode+0x32>
  40229e:	41 80 f8 2e          	cmp    $0x2e,%r8b
  4022a2:	74 c9                	je     40226d <urlencode+0x32>
  4022a4:	41 80 f8 5f          	cmp    $0x5f,%r8b
  4022a8:	74 c3                	je     40226d <urlencode+0x32>
  4022aa:	41 8d 40 d0          	lea    -0x30(%r8),%eax
  4022ae:	3c 09                	cmp    $0x9,%al
  4022b0:	76 bb                	jbe    40226d <urlencode+0x32>
  4022b2:	41 8d 40 bf          	lea    -0x41(%r8),%eax
  4022b6:	3c 19                	cmp    $0x19,%al
  4022b8:	76 b3                	jbe    40226d <urlencode+0x32>
  4022ba:	41 8d 40 9f          	lea    -0x61(%r8),%eax
  4022be:	3c 19                	cmp    $0x19,%al
  4022c0:	76 ab                	jbe    40226d <urlencode+0x32>
  4022c2:	41 80 f8 20          	cmp    $0x20,%r8b
  4022c6:	74 56                	je     40231e <urlencode+0xe3>
  4022c8:	41 8d 40 e0          	lea    -0x20(%r8),%eax
  4022cc:	3c 5f                	cmp    $0x5f,%al
  4022ce:	0f 96 c2             	setbe  %dl
  4022d1:	41 80 f8 09          	cmp    $0x9,%r8b
  4022d5:	0f 94 c0             	sete   %al
  4022d8:	08 c2                	or     %al,%dl
  4022da:	74 4f                	je     40232b <urlencode+0xf0>
  4022dc:	48 89 e7             	mov    %rsp,%rdi
  4022df:	45 0f b6 c0          	movzbl %r8b,%r8d
  4022e3:	48 8d 0d 2e 12 00 00 	lea    0x122e(%rip),%rcx        # 403518 <trans_char+0xa8>
  4022ea:	ba 08 00 00 00       	mov    $0x8,%edx
  4022ef:	be 01 00 00 00       	mov    $0x1,%esi
  4022f4:	b8 00 00 00 00       	mov    $0x0,%eax
  4022f9:	e8 62 eb ff ff       	callq  400e60 <__sprintf_chk@plt>
  4022fe:	0f b6 04 24          	movzbl (%rsp),%eax
  402302:	88 45 00             	mov    %al,0x0(%rbp)
  402305:	0f b6 44 24 01       	movzbl 0x1(%rsp),%eax
  40230a:	88 45 01             	mov    %al,0x1(%rbp)
  40230d:	0f b6 44 24 02       	movzbl 0x2(%rsp),%eax
  402312:	88 45 02             	mov    %al,0x2(%rbp)
  402315:	48 8d 6d 03          	lea    0x3(%rbp),%rbp
  402319:	e9 57 ff ff ff       	jmpq   402275 <urlencode+0x3a>
  40231e:	c6 45 00 2b          	movb   $0x2b,0x0(%rbp)
  402322:	48 8d 6d 01          	lea    0x1(%rbp),%rbp
  402326:	e9 4a ff ff ff       	jmpq   402275 <urlencode+0x3a>
  40232b:	b8 ff ff ff ff       	mov    $0xffffffff,%eax
  402330:	48 8b 74 24 08       	mov    0x8(%rsp),%rsi
  402335:	64 48 33 34 25 28 00 	xor    %fs:0x28,%rsi
  40233c:	00 00 
  40233e:	75 09                	jne    402349 <urlencode+0x10e>
  402340:	48 83 c4 10          	add    $0x10,%rsp
  402344:	5b                   	pop    %rbx
  402345:	5d                   	pop    %rbp
  402346:	41 5c                	pop    %r12
  402348:	c3                   	retq   
  402349:	e8 92 e9 ff ff       	callq  400ce0 <__stack_chk_fail@plt>

000000000040234e <submitr>:
  40234e:	41 57                	push   %r15
  402350:	41 56                	push   %r14
  402352:	41 55                	push   %r13
  402354:	41 54                	push   %r12
  402356:	55                   	push   %rbp
  402357:	53                   	push   %rbx
  402358:	48 81 ec 68 a0 00 00 	sub    $0xa068,%rsp
  40235f:	49 89 fd             	mov    %rdi,%r13
  402362:	89 74 24 14          	mov    %esi,0x14(%rsp)
  402366:	49 89 d7             	mov    %rdx,%r15
  402369:	48 89 4c 24 08       	mov    %rcx,0x8(%rsp)
  40236e:	4c 89 44 24 18       	mov    %r8,0x18(%rsp)
  402373:	4d 89 ce             	mov    %r9,%r14
  402376:	48 8b ac 24 a0 a0 00 	mov    0xa0a0(%rsp),%rbp
  40237d:	00 
  40237e:	64 48 8b 04 25 28 00 	mov    %fs:0x28,%rax
  402385:	00 00 
  402387:	48 89 84 24 58 a0 00 	mov    %rax,0xa058(%rsp)
  40238e:	00 
  40238f:	31 c0                	xor    %eax,%eax
  402391:	c7 44 24 2c 00 00 00 	movl   $0x0,0x2c(%rsp)
  402398:	00 
  402399:	ba 00 00 00 00       	mov    $0x0,%edx
  40239e:	be 01 00 00 00       	mov    $0x1,%esi
  4023a3:	bf 02 00 00 00       	mov    $0x2,%edi
  4023a8:	e8 c3 ea ff ff       	callq  400e70 <socket@plt>
  4023ad:	85 c0                	test   %eax,%eax
  4023af:	0f 88 a9 02 00 00    	js     40265e <submitr+0x310>
  4023b5:	89 c3                	mov    %eax,%ebx
  4023b7:	4c 89 ef             	mov    %r13,%rdi
  4023ba:	e8 91 e9 ff ff       	callq  400d50 <gethostbyname@plt>
  4023bf:	48 85 c0             	test   %rax,%rax
  4023c2:	0f 84 e2 02 00 00    	je     4026aa <submitr+0x35c>
  4023c8:	4c 8d 64 24 30       	lea    0x30(%rsp),%r12
  4023cd:	48 c7 44 24 32 00 00 	movq   $0x0,0x32(%rsp)
  4023d4:	00 00 
  4023d6:	c7 44 24 3a 00 00 00 	movl   $0x0,0x3a(%rsp)
  4023dd:	00 
  4023de:	66 c7 44 24 3e 00 00 	movw   $0x0,0x3e(%rsp)
  4023e5:	66 c7 44 24 30 02 00 	movw   $0x2,0x30(%rsp)
  4023ec:	48 63 50 14          	movslq 0x14(%rax),%rdx
  4023f0:	48 8b 40 18          	mov    0x18(%rax),%rax
  4023f4:	48 8b 30             	mov    (%rax),%rsi
  4023f7:	48 8d 7c 24 34       	lea    0x34(%rsp),%rdi
  4023fc:	b9 0c 00 00 00       	mov    $0xc,%ecx
  402401:	e8 5a e9 ff ff       	callq  400d60 <__memmove_chk@plt>
  402406:	0f b7 44 24 14       	movzwl 0x14(%rsp),%eax
  40240b:	66 c1 c8 08          	ror    $0x8,%ax
  40240f:	66 89 44 24 32       	mov    %ax,0x32(%rsp)
  402414:	ba 10 00 00 00       	mov    $0x10,%edx
  402419:	4c 89 e6             	mov    %r12,%rsi
  40241c:	89 df                	mov    %ebx,%edi
  40241e:	e8 1d ea ff ff       	callq  400e40 <connect@plt>
  402423:	85 c0                	test   %eax,%eax
  402425:	0f 88 e7 02 00 00    	js     402712 <submitr+0x3c4>
  40242b:	48 c7 c6 ff ff ff ff 	mov    $0xffffffffffffffff,%rsi
  402432:	b8 00 00 00 00       	mov    $0x0,%eax
  402437:	48 89 f1             	mov    %rsi,%rcx
  40243a:	4c 89 f7             	mov    %r14,%rdi
  40243d:	f2 ae                	repnz scas %es:(%rdi),%al
  40243f:	48 89 ca             	mov    %rcx,%rdx
  402442:	48 f7 d2             	not    %rdx
  402445:	48 89 f1             	mov    %rsi,%rcx
  402448:	4c 89 ff             	mov    %r15,%rdi
  40244b:	f2 ae                	repnz scas %es:(%rdi),%al
  40244d:	48 f7 d1             	not    %rcx
  402450:	49 89 c8             	mov    %rcx,%r8
  402453:	48 89 f1             	mov    %rsi,%rcx
  402456:	48 8b 7c 24 08       	mov    0x8(%rsp),%rdi
  40245b:	f2 ae                	repnz scas %es:(%rdi),%al
  40245d:	48 f7 d1             	not    %rcx
  402460:	4d 8d 44 08 fe       	lea    -0x2(%r8,%rcx,1),%r8
  402465:	48 89 f1             	mov    %rsi,%rcx
  402468:	48 8b 7c 24 18       	mov    0x18(%rsp),%rdi
  40246d:	f2 ae                	repnz scas %es:(%rdi),%al
  40246f:	48 89 c8             	mov    %rcx,%rax
  402472:	48 f7 d0             	not    %rax
  402475:	49 8d 4c 00 ff       	lea    -0x1(%r8,%rax,1),%rcx
  40247a:	48 8d 44 52 fd       	lea    -0x3(%rdx,%rdx,2),%rax
  40247f:	48 8d 84 01 80 00 00 	lea    0x80(%rcx,%rax,1),%rax
  402486:	00 
  402487:	48 3d 00 20 00 00    	cmp    $0x2000,%rax
  40248d:	0f 87 d9 02 00 00    	ja     40276c <submitr+0x41e>
  402493:	48 8d b4 24 50 40 00 	lea    0x4050(%rsp),%rsi
  40249a:	00 
  40249b:	b9 00 04 00 00       	mov    $0x400,%ecx
  4024a0:	b8 00 00 00 00       	mov    $0x0,%eax
  4024a5:	48 89 f7             	mov    %rsi,%rdi
  4024a8:	f3 48 ab             	rep stos %rax,%es:(%rdi)
  4024ab:	4c 89 f7             	mov    %r14,%rdi
  4024ae:	e8 88 fd ff ff       	callq  40223b <urlencode>
  4024b3:	85 c0                	test   %eax,%eax
  4024b5:	0f 88 24 03 00 00    	js     4027df <submitr+0x491>
  4024bb:	4c 8d a4 24 50 20 00 	lea    0x2050(%rsp),%r12
  4024c2:	00 
  4024c3:	41 55                	push   %r13
  4024c5:	48 8d 84 24 58 40 00 	lea    0x4058(%rsp),%rax
  4024cc:	00 
  4024cd:	50                   	push   %rax
  4024ce:	4d 89 f9             	mov    %r15,%r9
  4024d1:	4c 8b 44 24 18       	mov    0x18(%rsp),%r8
  4024d6:	48 8d 0d cb 0f 00 00 	lea    0xfcb(%rip),%rcx        # 4034a8 <trans_char+0x38>
  4024dd:	ba 00 20 00 00       	mov    $0x2000,%edx
  4024e2:	be 01 00 00 00       	mov    $0x1,%esi
  4024e7:	4c 89 e7             	mov    %r12,%rdi
  4024ea:	b8 00 00 00 00       	mov    $0x0,%eax
  4024ef:	e8 6c e9 ff ff       	callq  400e60 <__sprintf_chk@plt>
  4024f4:	48 c7 c1 ff ff ff ff 	mov    $0xffffffffffffffff,%rcx
  4024fb:	b8 00 00 00 00       	mov    $0x0,%eax
  402500:	4c 89 e7             	mov    %r12,%rdi
  402503:	f2 ae                	repnz scas %es:(%rdi),%al
  402505:	48 89 ca             	mov    %rcx,%rdx
  402508:	48 f7 d2             	not    %rdx
  40250b:	48 8d 52 ff          	lea    -0x1(%rdx),%rdx
  40250f:	4c 89 e6             	mov    %r12,%rsi
  402512:	89 df                	mov    %ebx,%edi
  402514:	e8 95 fb ff ff       	callq  4020ae <rio_writen>
  402519:	48 83 c4 10          	add    $0x10,%rsp
  40251d:	48 85 c0             	test   %rax,%rax
  402520:	0f 88 44 03 00 00    	js     40286a <submitr+0x51c>
  402526:	4c 8d 64 24 40       	lea    0x40(%rsp),%r12
  40252b:	89 de                	mov    %ebx,%esi
  40252d:	4c 89 e7             	mov    %r12,%rdi
  402530:	e8 37 fb ff ff       	callq  40206c <rio_readinitb>
  402535:	48 8d b4 24 50 20 00 	lea    0x2050(%rsp),%rsi
  40253c:	00 
  40253d:	ba 00 20 00 00       	mov    $0x2000,%edx
  402542:	4c 89 e7             	mov    %r12,%rdi
  402545:	e8 4d fc ff ff       	callq  402197 <rio_readlineb>
  40254a:	48 85 c0             	test   %rax,%rax
  40254d:	0f 8e 86 03 00 00    	jle    4028d9 <submitr+0x58b>
  402553:	48 8d 4c 24 2c       	lea    0x2c(%rsp),%rcx
  402558:	48 8d 94 24 50 60 00 	lea    0x6050(%rsp),%rdx
  40255f:	00 
  402560:	48 8d bc 24 50 20 00 	lea    0x2050(%rsp),%rdi
  402567:	00 
  402568:	4c 8d 84 24 50 80 00 	lea    0x8050(%rsp),%r8
  40256f:	00 
  402570:	48 8d 35 a8 0f 00 00 	lea    0xfa8(%rip),%rsi        # 40351f <trans_char+0xaf>
  402577:	b8 00 00 00 00       	mov    $0x0,%eax
  40257c:	e8 3f e8 ff ff       	callq  400dc0 <__isoc99_sscanf@plt>
  402581:	48 8d b4 24 50 20 00 	lea    0x2050(%rsp),%rsi
  402588:	00 
  402589:	b9 03 00 00 00       	mov    $0x3,%ecx
  40258e:	48 8d 3d a1 0f 00 00 	lea    0xfa1(%rip),%rdi        # 403536 <trans_char+0xc6>
  402595:	f3 a6                	repz cmpsb %es:(%rdi),%ds:(%rsi)
  402597:	0f 97 c0             	seta   %al
  40259a:	1c 00                	sbb    $0x0,%al
  40259c:	84 c0                	test   %al,%al
  40259e:	0f 84 b3 03 00 00    	je     402957 <submitr+0x609>
  4025a4:	48 8d b4 24 50 20 00 	lea    0x2050(%rsp),%rsi
  4025ab:	00 
  4025ac:	48 8d 7c 24 40       	lea    0x40(%rsp),%rdi
  4025b1:	ba 00 20 00 00       	mov    $0x2000,%edx
  4025b6:	e8 dc fb ff ff       	callq  402197 <rio_readlineb>
  4025bb:	48 85 c0             	test   %rax,%rax
  4025be:	7f c1                	jg     402581 <submitr+0x233>
  4025c0:	48 b8 45 72 72 6f 72 	movabs $0x43203a726f727245,%rax
  4025c7:	3a 20 43 
  4025ca:	48 ba 6c 69 65 6e 74 	movabs $0x6e7520746e65696c,%rdx
  4025d1:	20 75 6e 
  4025d4:	48 89 45 00          	mov    %rax,0x0(%rbp)
  4025d8:	48 89 55 08          	mov    %rdx,0x8(%rbp)
  4025dc:	48 b8 61 62 6c 65 20 	movabs $0x206f7420656c6261,%rax
  4025e3:	74 6f 20 
  4025e6:	48 ba 72 65 61 64 20 	movabs $0x6165682064616572,%rdx
  4025ed:	68 65 61 
  4025f0:	48 89 45 10          	mov    %rax,0x10(%rbp)
  4025f4:	48 89 55 18          	mov    %rdx,0x18(%rbp)
  4025f8:	48 b8 64 65 72 73 20 	movabs $0x6f72662073726564,%rax
  4025ff:	66 72 6f 
  402602:	48 ba 6d 20 74 68 65 	movabs $0x657220656874206d,%rdx
  402609:	20 72 65 
  40260c:	48 89 45 20          	mov    %rax,0x20(%rbp)
  402610:	48 89 55 28          	mov    %rdx,0x28(%rbp)
  402614:	48 b8 73 75 6c 74 20 	movabs $0x72657320746c7573,%rax
  40261b:	73 65 72 
  40261e:	48 89 45 30          	mov    %rax,0x30(%rbp)
  402622:	c7 45 38 76 65 72 00 	movl   $0x726576,0x38(%rbp)
  402629:	89 df                	mov    %ebx,%edi
  40262b:	e8 f0 e6 ff ff       	callq  400d20 <close@plt>
  402630:	b8 ff ff ff ff       	mov    $0xffffffff,%eax
  402635:	48 8b 9c 24 58 a0 00 	mov    0xa058(%rsp),%rbx
  40263c:	00 
  40263d:	64 48 33 1c 25 28 00 	xor    %fs:0x28,%rbx
  402644:	00 00 
  402646:	0f 85 7e 04 00 00    	jne    402aca <submitr+0x77c>
  40264c:	48 81 c4 68 a0 00 00 	add    $0xa068,%rsp
  402653:	5b                   	pop    %rbx
  402654:	5d                   	pop    %rbp
  402655:	41 5c                	pop    %r12
  402657:	41 5d                	pop    %r13
  402659:	41 5e                	pop    %r14
  40265b:	41 5f                	pop    %r15
  40265d:	c3                   	retq   
  40265e:	48 b8 45 72 72 6f 72 	movabs $0x43203a726f727245,%rax
  402665:	3a 20 43 
  402668:	48 ba 6c 69 65 6e 74 	movabs $0x6e7520746e65696c,%rdx
  40266f:	20 75 6e 
  402672:	48 89 45 00          	mov    %rax,0x0(%rbp)
  402676:	48 89 55 08          	mov    %rdx,0x8(%rbp)
  40267a:	48 b8 61 62 6c 65 20 	movabs $0x206f7420656c6261,%rax
  402681:	74 6f 20 
  402684:	48 ba 63 72 65 61 74 	movabs $0x7320657461657263,%rdx
  40268b:	65 20 73 
  40268e:	48 89 45 10          	mov    %rax,0x10(%rbp)
  402692:	48 89 55 18          	mov    %rdx,0x18(%rbp)
  402696:	c7 45 20 6f 63 6b 65 	movl   $0x656b636f,0x20(%rbp)
  40269d:	66 c7 45 24 74 00    	movw   $0x74,0x24(%rbp)
  4026a3:	b8 ff ff ff ff       	mov    $0xffffffff,%eax
  4026a8:	eb 8b                	jmp    402635 <submitr+0x2e7>
  4026aa:	48 b8 45 72 72 6f 72 	movabs $0x44203a726f727245,%rax
  4026b1:	3a 20 44 
  4026b4:	48 ba 4e 53 20 69 73 	movabs $0x6e7520736920534e,%rdx
  4026bb:	20 75 6e 
  4026be:	48 89 45 00          	mov    %rax,0x0(%rbp)
  4026c2:	48 89 55 08          	mov    %rdx,0x8(%rbp)
  4026c6:	48 b8 61 62 6c 65 20 	movabs $0x206f7420656c6261,%rax
  4026cd:	74 6f 20 
  4026d0:	48 ba 72 65 73 6f 6c 	movabs $0x2065766c6f736572,%rdx
  4026d7:	76 65 20 
  4026da:	48 89 45 10          	mov    %rax,0x10(%rbp)
  4026de:	48 89 55 18          	mov    %rdx,0x18(%rbp)
  4026e2:	48 b8 73 65 72 76 65 	movabs $0x6120726576726573,%rax
  4026e9:	72 20 61 
  4026ec:	48 89 45 20          	mov    %rax,0x20(%rbp)
  4026f0:	c7 45 28 64 64 72 65 	movl   $0x65726464,0x28(%rbp)
  4026f7:	66 c7 45 2c 73 73    	movw   $0x7373,0x2c(%rbp)
  4026fd:	c6 45 2e 00          	movb   $0x0,0x2e(%rbp)
  402701:	89 df                	mov    %ebx,%edi
  402703:	e8 18 e6 ff ff       	callq  400d20 <close@plt>
  402708:	b8 ff ff ff ff       	mov    $0xffffffff,%eax
  40270d:	e9 23 ff ff ff       	jmpq   402635 <submitr+0x2e7>
  402712:	48 b8 45 72 72 6f 72 	movabs $0x55203a726f727245,%rax
  402719:	3a 20 55 
  40271c:	48 ba 6e 61 62 6c 65 	movabs $0x6f7420656c62616e,%rdx
  402723:	20 74 6f 
  402726:	48 89 45 00          	mov    %rax,0x0(%rbp)
  40272a:	48 89 55 08          	mov    %rdx,0x8(%rbp)
  40272e:	48 b8 20 63 6f 6e 6e 	movabs $0x7463656e6e6f6320,%rax
  402735:	65 63 74 
  402738:	48 ba 20 74 6f 20 74 	movabs $0x20656874206f7420,%rdx
  40273f:	68 65 20 
  402742:	48 89 45 10          	mov    %rax,0x10(%rbp)
  402746:	48 89 55 18          	mov    %rdx,0x18(%rbp)
  40274a:	c7 45 20 73 65 72 76 	movl   $0x76726573,0x20(%rbp)
  402751:	66 c7 45 24 65 72    	movw   $0x7265,0x24(%rbp)
  402757:	c6 45 26 00          	movb   $0x0,0x26(%rbp)
  40275b:	89 df                	mov    %ebx,%edi
  40275d:	e8 be e5 ff ff       	callq  400d20 <close@plt>
  402762:	b8 ff ff ff ff       	mov    $0xffffffff,%eax
  402767:	e9 c9 fe ff ff       	jmpq   402635 <submitr+0x2e7>
  40276c:	48 b8 45 72 72 6f 72 	movabs $0x52203a726f727245,%rax
  402773:	3a 20 52 
  402776:	48 ba 65 73 75 6c 74 	movabs $0x747320746c757365,%rdx
  40277d:	20 73 74 
  402780:	48 89 45 00          	mov    %rax,0x0(%rbp)
  402784:	48 89 55 08          	mov    %rdx,0x8(%rbp)
  402788:	48 b8 72 69 6e 67 20 	movabs $0x6f6f7420676e6972,%rax
  40278f:	74 6f 6f 
  402792:	48 ba 20 6c 61 72 67 	movabs $0x202e656772616c20,%rdx
  402799:	65 2e 20 
  40279c:	48 89 45 10          	mov    %rax,0x10(%rbp)
  4027a0:	48 89 55 18          	mov    %rdx,0x18(%rbp)
  4027a4:	48 b8 49 6e 63 72 65 	movabs $0x6573616572636e49,%rax
  4027ab:	61 73 65 
  4027ae:	48 ba 20 53 55 42 4d 	movabs $0x5254494d42555320,%rdx
  4027b5:	49 54 52 
  4027b8:	48 89 45 20          	mov    %rax,0x20(%rbp)
  4027bc:	48 89 55 28          	mov    %rdx,0x28(%rbp)
  4027c0:	48 b8 5f 4d 41 58 42 	movabs $0x46554258414d5f,%rax
  4027c7:	55 46 00 
  4027ca:	48 89 45 30          	mov    %rax,0x30(%rbp)
  4027ce:	89 df                	mov    %ebx,%edi
  4027d0:	e8 4b e5 ff ff       	callq  400d20 <close@plt>
  4027d5:	b8 ff ff ff ff       	mov    $0xffffffff,%eax
  4027da:	e9 56 fe ff ff       	jmpq   402635 <submitr+0x2e7>
  4027df:	48 b8 45 72 72 6f 72 	movabs $0x52203a726f727245,%rax
  4027e6:	3a 20 52 
  4027e9:	48 ba 65 73 75 6c 74 	movabs $0x747320746c757365,%rdx
  4027f0:	20 73 74 
  4027f3:	48 89 45 00          	mov    %rax,0x0(%rbp)
  4027f7:	48 89 55 08          	mov    %rdx,0x8(%rbp)
  4027fb:	48 b8 72 69 6e 67 20 	movabs $0x6e6f6320676e6972,%rax
  402802:	63 6f 6e 
  402805:	48 ba 74 61 69 6e 73 	movabs $0x6e6120736e696174,%rdx
  40280c:	20 61 6e 
  40280f:	48 89 45 10          	mov    %rax,0x10(%rbp)
  402813:	48 89 55 18          	mov    %rdx,0x18(%rbp)
  402817:	48 b8 20 69 6c 6c 65 	movabs $0x6c6167656c6c6920,%rax
  40281e:	67 61 6c 
  402821:	48 ba 20 6f 72 20 75 	movabs $0x72706e7520726f20,%rdx
  402828:	6e 70 72 
  40282b:	48 89 45 20          	mov    %rax,0x20(%rbp)
  40282f:	48 89 55 28          	mov    %rdx,0x28(%rbp)
  402833:	48 b8 69 6e 74 61 62 	movabs $0x20656c6261746e69,%rax
  40283a:	6c 65 20 
  40283d:	48 ba 63 68 61 72 61 	movabs $0x6574636172616863,%rdx
  402844:	63 74 65 
  402847:	48 89 45 30          	mov    %rax,0x30(%rbp)
  40284b:	48 89 55 38          	mov    %rdx,0x38(%rbp)
  40284f:	66 c7 45 40 72 2e    	movw   $0x2e72,0x40(%rbp)
  402855:	c6 45 42 00          	movb   $0x0,0x42(%rbp)
  402859:	89 df                	mov    %ebx,%edi
  40285b:	e8 c0 e4 ff ff       	callq  400d20 <close@plt>
  402860:	b8 ff ff ff ff       	mov    $0xffffffff,%eax
  402865:	e9 cb fd ff ff       	jmpq   402635 <submitr+0x2e7>
  40286a:	48 b8 45 72 72 6f 72 	movabs $0x43203a726f727245,%rax
  402871:	3a 20 43 
  402874:	48 ba 6c 69 65 6e 74 	movabs $0x6e7520746e65696c,%rdx
  40287b:	20 75 6e 
  40287e:	48 89 45 00          	mov    %rax,0x0(%rbp)
  402882:	48 89 55 08          	mov    %rdx,0x8(%rbp)
  402886:	48 b8 61 62 6c 65 20 	movabs $0x206f7420656c6261,%rax
  40288d:	74 6f 20 
  402890:	48 ba 77 72 69 74 65 	movabs $0x6f74206574697277,%rdx
  402897:	20 74 6f 
  40289a:	48 89 45 10          	mov    %rax,0x10(%rbp)
  40289e:	48 89 55 18          	mov    %rdx,0x18(%rbp)
  4028a2:	48 b8 20 74 68 65 20 	movabs $0x7365722065687420,%rax
  4028a9:	72 65 73 
  4028ac:	48 ba 75 6c 74 20 73 	movabs $0x7672657320746c75,%rdx
  4028b3:	65 72 76 
  4028b6:	48 89 45 20          	mov    %rax,0x20(%rbp)
  4028ba:	48 89 55 28          	mov    %rdx,0x28(%rbp)
  4028be:	66 c7 45 30 65 72    	movw   $0x7265,0x30(%rbp)
  4028c4:	c6 45 32 00          	movb   $0x0,0x32(%rbp)
  4028c8:	89 df                	mov    %ebx,%edi
  4028ca:	e8 51 e4 ff ff       	callq  400d20 <close@plt>
  4028cf:	b8 ff ff ff ff       	mov    $0xffffffff,%eax
  4028d4:	e9 5c fd ff ff       	jmpq   402635 <submitr+0x2e7>
  4028d9:	48 b8 45 72 72 6f 72 	movabs $0x43203a726f727245,%rax
  4028e0:	3a 20 43 
  4028e3:	48 ba 6c 69 65 6e 74 	movabs $0x6e7520746e65696c,%rdx
  4028ea:	20 75 6e 
  4028ed:	48 89 45 00          	mov    %rax,0x0(%rbp)
  4028f1:	48 89 55 08          	mov    %rdx,0x8(%rbp)
  4028f5:	48 b8 61 62 6c 65 20 	movabs $0x206f7420656c6261,%rax
  4028fc:	74 6f 20 
  4028ff:	48 ba 72 65 61 64 20 	movabs $0x7269662064616572,%rdx
  402906:	66 69 72 
  402909:	48 89 45 10          	mov    %rax,0x10(%rbp)
  40290d:	48 89 55 18          	mov    %rdx,0x18(%rbp)
  402911:	48 b8 73 74 20 68 65 	movabs $0x6564616568207473,%rax
  402918:	61 64 65 
  40291b:	48 ba 72 20 66 72 6f 	movabs $0x72206d6f72662072,%rdx
  402922:	6d 20 72 
  402925:	48 89 45 20          	mov    %rax,0x20(%rbp)
  402929:	48 89 55 28          	mov    %rdx,0x28(%rbp)
  40292d:	48 b8 65 73 75 6c 74 	movabs $0x657320746c757365,%rax
  402934:	20 73 65 
  402937:	48 89 45 30          	mov    %rax,0x30(%rbp)
  40293b:	c7 45 38 72 76 65 72 	movl   $0x72657672,0x38(%rbp)
  402942:	c6 45 3c 00          	movb   $0x0,0x3c(%rbp)
  402946:	89 df                	mov    %ebx,%edi
  402948:	e8 d3 e3 ff ff       	callq  400d20 <close@plt>
  40294d:	b8 ff ff ff ff       	mov    $0xffffffff,%eax
  402952:	e9 de fc ff ff       	jmpq   402635 <submitr+0x2e7>
  402957:	48 8d b4 24 50 20 00 	lea    0x2050(%rsp),%rsi
  40295e:	00 
  40295f:	48 8d 7c 24 40       	lea    0x40(%rsp),%rdi
  402964:	ba 00 20 00 00       	mov    $0x2000,%edx
  402969:	e8 29 f8 ff ff       	callq  402197 <rio_readlineb>
  40296e:	48 85 c0             	test   %rax,%rax
  402971:	0f 8e 96 00 00 00    	jle    402a0d <submitr+0x6bf>
  402977:	44 8b 44 24 2c       	mov    0x2c(%rsp),%r8d
  40297c:	41 81 f8 c8 00 00 00 	cmp    $0xc8,%r8d
  402983:	0f 85 08 01 00 00    	jne    402a91 <submitr+0x743>
  402989:	48 8d b4 24 50 20 00 	lea    0x2050(%rsp),%rsi
  402990:	00 
  402991:	48 89 ef             	mov    %rbp,%rdi
  402994:	e8 17 e3 ff ff       	callq  400cb0 <strcpy@plt>
  402999:	89 df                	mov    %ebx,%edi
  40299b:	e8 80 e3 ff ff       	callq  400d20 <close@plt>
  4029a0:	b9 04 00 00 00       	mov    $0x4,%ecx
  4029a5:	48 8d 3d 84 0b 00 00 	lea    0xb84(%rip),%rdi        # 403530 <trans_char+0xc0>
  4029ac:	48 89 ee             	mov    %rbp,%rsi
  4029af:	f3 a6                	repz cmpsb %es:(%rdi),%ds:(%rsi)
  4029b1:	0f 97 c0             	seta   %al
  4029b4:	1c 00                	sbb    $0x0,%al
  4029b6:	0f be c0             	movsbl %al,%eax
  4029b9:	85 c0                	test   %eax,%eax
  4029bb:	0f 84 74 fc ff ff    	je     402635 <submitr+0x2e7>
  4029c1:	b9 05 00 00 00       	mov    $0x5,%ecx
  4029c6:	48 8d 3d 67 0b 00 00 	lea    0xb67(%rip),%rdi        # 403534 <trans_char+0xc4>
  4029cd:	48 89 ee             	mov    %rbp,%rsi
  4029d0:	f3 a6                	repz cmpsb %es:(%rdi),%ds:(%rsi)
  4029d2:	0f 97 c0             	seta   %al
  4029d5:	1c 00                	sbb    $0x0,%al
  4029d7:	0f be c0             	movsbl %al,%eax
  4029da:	85 c0                	test   %eax,%eax
  4029dc:	0f 84 53 fc ff ff    	je     402635 <submitr+0x2e7>
  4029e2:	b9 03 00 00 00       	mov    $0x3,%ecx
  4029e7:	48 8d 3d 4b 0b 00 00 	lea    0xb4b(%rip),%rdi        # 403539 <trans_char+0xc9>
  4029ee:	48 89 ee             	mov    %rbp,%rsi
  4029f1:	f3 a6                	repz cmpsb %es:(%rdi),%ds:(%rsi)
  4029f3:	0f 97 c0             	seta   %al
  4029f6:	1c 00                	sbb    $0x0,%al
  4029f8:	0f be c0             	movsbl %al,%eax
  4029fb:	85 c0                	test   %eax,%eax
  4029fd:	0f 84 32 fc ff ff    	je     402635 <submitr+0x2e7>
  402a03:	b8 ff ff ff ff       	mov    $0xffffffff,%eax
  402a08:	e9 28 fc ff ff       	jmpq   402635 <submitr+0x2e7>
  402a0d:	48 b8 45 72 72 6f 72 	movabs $0x43203a726f727245,%rax
  402a14:	3a 20 43 
  402a17:	48 ba 6c 69 65 6e 74 	movabs $0x6e7520746e65696c,%rdx
  402a1e:	20 75 6e 
  402a21:	48 89 45 00          	mov    %rax,0x0(%rbp)
  402a25:	48 89 55 08          	mov    %rdx,0x8(%rbp)
  402a29:	48 b8 61 62 6c 65 20 	movabs $0x206f7420656c6261,%rax
  402a30:	74 6f 20 
  402a33:	48 ba 72 65 61 64 20 	movabs $0x6174732064616572,%rdx
  402a3a:	73 74 61 
  402a3d:	48 89 45 10          	mov    %rax,0x10(%rbp)
  402a41:	48 89 55 18          	mov    %rdx,0x18(%rbp)
  402a45:	48 b8 74 75 73 20 6d 	movabs $0x7373656d20737574,%rax
  402a4c:	65 73 73 
  402a4f:	48 ba 61 67 65 20 66 	movabs $0x6d6f726620656761,%rdx
  402a56:	72 6f 6d 
  402a59:	48 89 45 20          	mov    %rax,0x20(%rbp)
  402a5d:	48 89 55 28          	mov    %rdx,0x28(%rbp)
  402a61:	48 b8 20 72 65 73 75 	movabs $0x20746c7573657220,%rax
  402a68:	6c 74 20 
  402a6b:	48 89 45 30          	mov    %rax,0x30(%rbp)
  402a6f:	c7 45 38 73 65 72 76 	movl   $0x76726573,0x38(%rbp)
  402a76:	66 c7 45 3c 65 72    	movw   $0x7265,0x3c(%rbp)
  402a7c:	c6 45 3e 00          	movb   $0x0,0x3e(%rbp)
  402a80:	89 df                	mov    %ebx,%edi
  402a82:	e8 99 e2 ff ff       	callq  400d20 <close@plt>
  402a87:	b8 ff ff ff ff       	mov    $0xffffffff,%eax
  402a8c:	e9 a4 fb ff ff       	jmpq   402635 <submitr+0x2e7>
  402a91:	4c 8d 8c 24 50 80 00 	lea    0x8050(%rsp),%r9
  402a98:	00 
  402a99:	48 8d 0d 48 0a 00 00 	lea    0xa48(%rip),%rcx        # 4034e8 <trans_char+0x78>
  402aa0:	48 c7 c2 ff ff ff ff 	mov    $0xffffffffffffffff,%rdx
  402aa7:	be 01 00 00 00       	mov    $0x1,%esi
  402aac:	48 89 ef             	mov    %rbp,%rdi
  402aaf:	b8 00 00 00 00       	mov    $0x0,%eax
  402ab4:	e8 a7 e3 ff ff       	callq  400e60 <__sprintf_chk@plt>
  402ab9:	89 df                	mov    %ebx,%edi
  402abb:	e8 60 e2 ff ff       	callq  400d20 <close@plt>
  402ac0:	b8 ff ff ff ff       	mov    $0xffffffff,%eax
  402ac5:	e9 6b fb ff ff       	jmpq   402635 <submitr+0x2e7>
  402aca:	e8 11 e2 ff ff       	callq  400ce0 <__stack_chk_fail@plt>

0000000000402acf <init_timeout>:
  402acf:	85 ff                	test   %edi,%edi
  402ad1:	74 28                	je     402afb <init_timeout+0x2c>
  402ad3:	53                   	push   %rbx
  402ad4:	89 fb                	mov    %edi,%ebx
  402ad6:	85 ff                	test   %edi,%edi
  402ad8:	78 1a                	js     402af4 <init_timeout+0x25>
  402ada:	48 8d 35 9d f5 ff ff 	lea    -0xa63(%rip),%rsi        # 40207e <sigalrm_handler>
  402ae1:	bf 0e 00 00 00       	mov    $0xe,%edi
  402ae6:	e8 55 e2 ff ff       	callq  400d40 <signal@plt>
  402aeb:	89 df                	mov    %ebx,%edi
  402aed:	e8 1e e2 ff ff       	callq  400d10 <alarm@plt>
  402af2:	5b                   	pop    %rbx
  402af3:	c3                   	retq   
  402af4:	bb 00 00 00 00       	mov    $0x0,%ebx
  402af9:	eb df                	jmp    402ada <init_timeout+0xb>
  402afb:	f3 c3                	repz retq 

0000000000402afd <init_driver>:
  402afd:	41 54                	push   %r12
  402aff:	55                   	push   %rbp
  402b00:	53                   	push   %rbx
  402b01:	48 83 ec 20          	sub    $0x20,%rsp
  402b05:	49 89 fc             	mov    %rdi,%r12
  402b08:	64 48 8b 04 25 28 00 	mov    %fs:0x28,%rax
  402b0f:	00 00 
  402b11:	48 89 44 24 18       	mov    %rax,0x18(%rsp)
  402b16:	31 c0                	xor    %eax,%eax
  402b18:	be 01 00 00 00       	mov    $0x1,%esi
  402b1d:	bf 0d 00 00 00       	mov    $0xd,%edi
  402b22:	e8 19 e2 ff ff       	callq  400d40 <signal@plt>
  402b27:	be 01 00 00 00       	mov    $0x1,%esi
  402b2c:	bf 1d 00 00 00       	mov    $0x1d,%edi
  402b31:	e8 0a e2 ff ff       	callq  400d40 <signal@plt>
  402b36:	be 01 00 00 00       	mov    $0x1,%esi
  402b3b:	bf 1d 00 00 00       	mov    $0x1d,%edi
  402b40:	e8 fb e1 ff ff       	callq  400d40 <signal@plt>
  402b45:	ba 00 00 00 00       	mov    $0x0,%edx
  402b4a:	be 01 00 00 00       	mov    $0x1,%esi
  402b4f:	bf 02 00 00 00       	mov    $0x2,%edi
  402b54:	e8 17 e3 ff ff       	callq  400e70 <socket@plt>
  402b59:	85 c0                	test   %eax,%eax
  402b5b:	0f 88 a3 00 00 00    	js     402c04 <init_driver+0x107>
  402b61:	89 c3                	mov    %eax,%ebx
  402b63:	48 8d 3d d2 09 00 00 	lea    0x9d2(%rip),%rdi        # 40353c <trans_char+0xcc>
  402b6a:	e8 e1 e1 ff ff       	callq  400d50 <gethostbyname@plt>
  402b6f:	48 85 c0             	test   %rax,%rax
  402b72:	0f 84 df 00 00 00    	je     402c57 <init_driver+0x15a>
  402b78:	48 89 e5             	mov    %rsp,%rbp
  402b7b:	48 c7 44 24 02 00 00 	movq   $0x0,0x2(%rsp)
  402b82:	00 00 
  402b84:	c7 45 0a 00 00 00 00 	movl   $0x0,0xa(%rbp)
  402b8b:	66 c7 45 0e 00 00    	movw   $0x0,0xe(%rbp)
  402b91:	66 c7 04 24 02 00    	movw   $0x2,(%rsp)
  402b97:	48 63 50 14          	movslq 0x14(%rax),%rdx
  402b9b:	48 8b 40 18          	mov    0x18(%rax),%rax
  402b9f:	48 8b 30             	mov    (%rax),%rsi
  402ba2:	48 8d 7d 04          	lea    0x4(%rbp),%rdi
  402ba6:	b9 0c 00 00 00       	mov    $0xc,%ecx
  402bab:	e8 b0 e1 ff ff       	callq  400d60 <__memmove_chk@plt>
  402bb0:	66 c7 44 24 02 3c 9a 	movw   $0x9a3c,0x2(%rsp)
  402bb7:	ba 10 00 00 00       	mov    $0x10,%edx
  402bbc:	48 89 ee             	mov    %rbp,%rsi
  402bbf:	89 df                	mov    %ebx,%edi
  402bc1:	e8 7a e2 ff ff       	callq  400e40 <connect@plt>
  402bc6:	85 c0                	test   %eax,%eax
  402bc8:	0f 88 fb 00 00 00    	js     402cc9 <init_driver+0x1cc>
  402bce:	89 df                	mov    %ebx,%edi
  402bd0:	e8 4b e1 ff ff       	callq  400d20 <close@plt>
  402bd5:	66 41 c7 04 24 4f 4b 	movw   $0x4b4f,(%r12)
  402bdc:	41 c6 44 24 02 00    	movb   $0x0,0x2(%r12)
  402be2:	b8 00 00 00 00       	mov    $0x0,%eax
  402be7:	48 8b 4c 24 18       	mov    0x18(%rsp),%rcx
  402bec:	64 48 33 0c 25 28 00 	xor    %fs:0x28,%rcx
  402bf3:	00 00 
  402bf5:	0f 85 28 01 00 00    	jne    402d23 <init_driver+0x226>
  402bfb:	48 83 c4 20          	add    $0x20,%rsp
  402bff:	5b                   	pop    %rbx
  402c00:	5d                   	pop    %rbp
  402c01:	41 5c                	pop    %r12
  402c03:	c3                   	retq   
  402c04:	48 b8 45 72 72 6f 72 	movabs $0x43203a726f727245,%rax
  402c0b:	3a 20 43 
  402c0e:	48 ba 6c 69 65 6e 74 	movabs $0x6e7520746e65696c,%rdx
  402c15:	20 75 6e 
  402c18:	49 89 04 24          	mov    %rax,(%r12)
  402c1c:	49 89 54 24 08       	mov    %rdx,0x8(%r12)
  402c21:	48 b8 61 62 6c 65 20 	movabs $0x206f7420656c6261,%rax
  402c28:	74 6f 20 
  402c2b:	48 ba 63 72 65 61 74 	movabs $0x7320657461657263,%rdx
  402c32:	65 20 73 
  402c35:	49 89 44 24 10       	mov    %rax,0x10(%r12)
  402c3a:	49 89 54 24 18       	mov    %rdx,0x18(%r12)
  402c3f:	41 c7 44 24 20 6f 63 	movl   $0x656b636f,0x20(%r12)
  402c46:	6b 65 
  402c48:	66 41 c7 44 24 24 74 	movw   $0x74,0x24(%r12)
  402c4f:	00 
  402c50:	b8 ff ff ff ff       	mov    $0xffffffff,%eax
  402c55:	eb 90                	jmp    402be7 <init_driver+0xea>
  402c57:	48 b8 45 72 72 6f 72 	movabs $0x44203a726f727245,%rax
  402c5e:	3a 20 44 
  402c61:	48 ba 4e 53 20 69 73 	movabs $0x6e7520736920534e,%rdx
  402c68:	20 75 6e 
  402c6b:	49 89 04 24          	mov    %rax,(%r12)
  402c6f:	49 89 54 24 08       	mov    %rdx,0x8(%r12)
  402c74:	48 b8 61 62 6c 65 20 	movabs $0x206f7420656c6261,%rax
  402c7b:	74 6f 20 
  402c7e:	48 ba 72 65 73 6f 6c 	movabs $0x2065766c6f736572,%rdx
  402c85:	76 65 20 
  402c88:	49 89 44 24 10       	mov    %rax,0x10(%r12)
  402c8d:	49 89 54 24 18       	mov    %rdx,0x18(%r12)
  402c92:	48 b8 73 65 72 76 65 	movabs $0x6120726576726573,%rax
  402c99:	72 20 61 
  402c9c:	49 89 44 24 20       	mov    %rax,0x20(%r12)
  402ca1:	41 c7 44 24 28 64 64 	movl   $0x65726464,0x28(%r12)
  402ca8:	72 65 
  402caa:	66 41 c7 44 24 2c 73 	movw   $0x7373,0x2c(%r12)
  402cb1:	73 
  402cb2:	41 c6 44 24 2e 00    	movb   $0x0,0x2e(%r12)
  402cb8:	89 df                	mov    %ebx,%edi
  402cba:	e8 61 e0 ff ff       	callq  400d20 <close@plt>
  402cbf:	b8 ff ff ff ff       	mov    $0xffffffff,%eax
  402cc4:	e9 1e ff ff ff       	jmpq   402be7 <init_driver+0xea>
  402cc9:	48 b8 45 72 72 6f 72 	movabs $0x55203a726f727245,%rax
  402cd0:	3a 20 55 
  402cd3:	48 ba 6e 61 62 6c 65 	movabs $0x6f7420656c62616e,%rdx
  402cda:	20 74 6f 
  402cdd:	49 89 04 24          	mov    %rax,(%r12)
  402ce1:	49 89 54 24 08       	mov    %rdx,0x8(%r12)
  402ce6:	48 b8 20 63 6f 6e 6e 	movabs $0x7463656e6e6f6320,%rax
  402ced:	65 63 74 
  402cf0:	48 ba 20 74 6f 20 73 	movabs $0x76726573206f7420,%rdx
  402cf7:	65 72 76 
  402cfa:	49 89 44 24 10       	mov    %rax,0x10(%r12)
  402cff:	49 89 54 24 18       	mov    %rdx,0x18(%r12)
  402d04:	66 41 c7 44 24 20 65 	movw   $0x7265,0x20(%r12)
  402d0b:	72 
  402d0c:	41 c6 44 24 22 00    	movb   $0x0,0x22(%r12)
  402d12:	89 df                	mov    %ebx,%edi
  402d14:	e8 07 e0 ff ff       	callq  400d20 <close@plt>
  402d19:	b8 ff ff ff ff       	mov    $0xffffffff,%eax
  402d1e:	e9 c4 fe ff ff       	jmpq   402be7 <init_driver+0xea>
  402d23:	e8 b8 df ff ff       	callq  400ce0 <__stack_chk_fail@plt>

0000000000402d28 <driver_post>:
  402d28:	53                   	push   %rbx
  402d29:	4c 89 cb             	mov    %r9,%rbx
  402d2c:	45 85 c0             	test   %r8d,%r8d
  402d2f:	75 18                	jne    402d49 <driver_post+0x21>
  402d31:	48 85 ff             	test   %rdi,%rdi
  402d34:	74 05                	je     402d3b <driver_post+0x13>
  402d36:	80 3f 00             	cmpb   $0x0,(%rdi)
  402d39:	75 37                	jne    402d72 <driver_post+0x4a>
  402d3b:	66 c7 03 4f 4b       	movw   $0x4b4f,(%rbx)
  402d40:	c6 43 02 00          	movb   $0x0,0x2(%rbx)
  402d44:	44 89 c0             	mov    %r8d,%eax
  402d47:	5b                   	pop    %rbx
  402d48:	c3                   	retq   
  402d49:	48 89 ca             	mov    %rcx,%rdx
  402d4c:	48 8d 35 01 08 00 00 	lea    0x801(%rip),%rsi        # 403554 <trans_char+0xe4>
  402d53:	bf 01 00 00 00       	mov    $0x1,%edi
  402d58:	b8 00 00 00 00       	mov    $0x0,%eax
  402d5d:	e8 7e e0 ff ff       	callq  400de0 <__printf_chk@plt>
  402d62:	66 c7 03 4f 4b       	movw   $0x4b4f,(%rbx)
  402d67:	c6 43 02 00          	movb   $0x0,0x2(%rbx)
  402d6b:	b8 00 00 00 00       	mov    $0x0,%eax
  402d70:	eb d5                	jmp    402d47 <driver_post+0x1f>
  402d72:	48 83 ec 08          	sub    $0x8,%rsp
  402d76:	41 51                	push   %r9
  402d78:	49 89 c9             	mov    %rcx,%r9
  402d7b:	49 89 d0             	mov    %rdx,%r8
  402d7e:	48 89 f9             	mov    %rdi,%rcx
  402d81:	48 89 f2             	mov    %rsi,%rdx
  402d84:	be 9a 3c 00 00       	mov    $0x3c9a,%esi
  402d89:	48 8d 3d ac 07 00 00 	lea    0x7ac(%rip),%rdi        # 40353c <trans_char+0xcc>
  402d90:	e8 b9 f5 ff ff       	callq  40234e <submitr>
  402d95:	48 83 c4 10          	add    $0x10,%rsp
  402d99:	eb ac                	jmp    402d47 <driver_post+0x1f>

0000000000402d9b <check>:
  402d9b:	89 f8                	mov    %edi,%eax
  402d9d:	c1 e8 1c             	shr    $0x1c,%eax
  402da0:	85 c0                	test   %eax,%eax
  402da2:	74 1d                	je     402dc1 <check+0x26>
  402da4:	b9 00 00 00 00       	mov    $0x0,%ecx
  402da9:	83 f9 1f             	cmp    $0x1f,%ecx
  402dac:	7f 0d                	jg     402dbb <check+0x20>
  402dae:	89 f8                	mov    %edi,%eax
  402db0:	d3 e8                	shr    %cl,%eax
  402db2:	3c 0a                	cmp    $0xa,%al
  402db4:	74 11                	je     402dc7 <check+0x2c>
  402db6:	83 c1 08             	add    $0x8,%ecx
  402db9:	eb ee                	jmp    402da9 <check+0xe>
  402dbb:	b8 01 00 00 00       	mov    $0x1,%eax
  402dc0:	c3                   	retq   
  402dc1:	b8 00 00 00 00       	mov    $0x0,%eax
  402dc6:	c3                   	retq   
  402dc7:	b8 00 00 00 00       	mov    $0x0,%eax
  402dcc:	c3                   	retq   

0000000000402dcd <gencookie>:
  402dcd:	53                   	push   %rbx
  402dce:	83 c7 01             	add    $0x1,%edi
  402dd1:	e8 ba de ff ff       	callq  400c90 <srandom@plt>
  402dd6:	e8 c5 df ff ff       	callq  400da0 <random@plt>
  402ddb:	89 c3                	mov    %eax,%ebx
  402ddd:	89 c7                	mov    %eax,%edi
  402ddf:	e8 b7 ff ff ff       	callq  402d9b <check>
  402de4:	85 c0                	test   %eax,%eax
  402de6:	74 ee                	je     402dd6 <gencookie+0x9>
  402de8:	89 d8                	mov    %ebx,%eax
  402dea:	5b                   	pop    %rbx
  402deb:	c3                   	retq   
  402dec:	0f 1f 40 00          	nopl   0x0(%rax)

0000000000402df0 <__libc_csu_init>:
  402df0:	41 57                	push   %r15
  402df2:	41 56                	push   %r14
  402df4:	49 89 d7             	mov    %rdx,%r15
  402df7:	41 55                	push   %r13
  402df9:	41 54                	push   %r12
  402dfb:	4c 8d 25 0e 20 20 00 	lea    0x20200e(%rip),%r12        # 604e10 <__frame_dummy_init_array_entry>
  402e02:	55                   	push   %rbp
  402e03:	48 8d 2d 0e 20 20 00 	lea    0x20200e(%rip),%rbp        # 604e18 <__init_array_end>
  402e0a:	53                   	push   %rbx
  402e0b:	41 89 fd             	mov    %edi,%r13d
  402e0e:	49 89 f6             	mov    %rsi,%r14
  402e11:	4c 29 e5             	sub    %r12,%rbp
  402e14:	48 83 ec 08          	sub    $0x8,%rsp
  402e18:	48 c1 fd 03          	sar    $0x3,%rbp
  402e1c:	e8 27 de ff ff       	callq  400c48 <_init>
  402e21:	48 85 ed             	test   %rbp,%rbp
  402e24:	74 20                	je     402e46 <__libc_csu_init+0x56>
  402e26:	31 db                	xor    %ebx,%ebx
  402e28:	0f 1f 84 00 00 00 00 	nopl   0x0(%rax,%rax,1)
  402e2f:	00 
  402e30:	4c 89 fa             	mov    %r15,%rdx
  402e33:	4c 89 f6             	mov    %r14,%rsi
  402e36:	44 89 ef             	mov    %r13d,%edi
  402e39:	41 ff 14 dc          	callq  *(%r12,%rbx,8)
  402e3d:	48 83 c3 01          	add    $0x1,%rbx
  402e41:	48 39 dd             	cmp    %rbx,%rbp
  402e44:	75 ea                	jne    402e30 <__libc_csu_init+0x40>
  402e46:	48 83 c4 08          	add    $0x8,%rsp
  402e4a:	5b                   	pop    %rbx
  402e4b:	5d                   	pop    %rbp
  402e4c:	41 5c                	pop    %r12
  402e4e:	41 5d                	pop    %r13
  402e50:	41 5e                	pop    %r14
  402e52:	41 5f                	pop    %r15
  402e54:	c3                   	retq   
  402e55:	90                   	nop
  402e56:	66 2e 0f 1f 84 00 00 	nopw   %cs:0x0(%rax,%rax,1)
  402e5d:	00 00 00 

0000000000402e60 <__libc_csu_fini>:
  402e60:	f3 c3                	repz retq 

Disassembly of section .fini:

0000000000402e64 <_fini>:
  402e64:	48 83 ec 08          	sub    $0x8,%rsp
  402e68:	48 83 c4 08          	add    $0x8,%rsp
  402e6c:	c3                   	retq   
